(lp0
(lp1
(lp2
NaNaNaNaNaNaNaNaNaNaNaNaNaNaNaNaNaNaNaNaa(lp3
NaNaNaNaNaNaNaNaNaNaNaNaNaNaNaNaNaNaNaNaa(lp4
NaNaNaNaNaNaNaNaNaNaNaNaNaNaNaNaNaNaNaNaa(lp5
NaNaNaNaNaNaNaNaNaNaNaNaNaNaNaNaNaNaNaNaa(lp6
NaNaNaNaNaNaNaNaNaNaNaNaNaNaNaNaNaNaNaNaa(lp7
NaNaNaNaNaNaNaNaNaNaNaNaNaNaNaNaNaNaNaNaa(lp8
NaNaNaNaNaNaNaNaNaNaNaNaNaNaNaNaNaNaNaNaa(lp9
NaNaNaNaNaNaNaNaNaNaNaNaNaNaNaNaNaNaNaNaa(lp10
NaNaNaNaNaNaNaNaNaNaNaNaNaNaNaNaNaNaNaNaa(lp11
NaNaNaNaNaNaNaNaNaNaNaNaNaNaNaNaNaNaNaNaa(lp12
NaNaNaNaNaNaNaNaNaNaNaNaNaNaNaNaNaNaNaNaa(lp13
NaNaNaNaNaNaNaNaNaNaNaNaNaNaNaNaNaNaNaNaa(lp14
NaNaNaNaNaNaNaNaNaNaNaNaNaNaNaNaNaNaNaNaa(lp15
NaNaNaNaNaNaNaNaNaNaNaNaNaNaNaNaNaNaNaNaa(lp16
NaNaNaNaNaNaNaNaNaNaNaNaNaNaNaNaNaNaNaNaa(lp17
NaNaNaNaNaNaNaNaNaNaNaNaNaNaNaNaNaNaNaNaa(lp18
NaNaNaNaNaNaNaNaNaNaNaNaNaNaNaNaNaNaNaNaa(lp19
NaNaNaNaNaNaNaNaNaNaNaNaNaNaNaNaNaNaNaNaa(lp20
NaNaNaNaNaNaNaNaNaNaNaNaNaNaNaNaNaNaNaNaa(lp21
NaNaNaNaNaNaNaNaNaNaNaNaNaNaNaNaNaNaNaNaaa(lp22
(lp23
NaNaNaNaNaNaNaNaNaNaNaNaNaNaNaNaNaNaNaNaa(lp24
NaNaNaNaNaNaNaNaNaNaNaNaNaNaNaNaNaNaNaNaa(lp25
NaNaNaNaNaNaNaNaNaNaNaNaNaNaNaNaNaNaNaNaa(lp26
NaNaNaNaNaNaNaNaNaNaNaNaNaNaNaNaNaNaNaNaa(lp27
NaNaNaNaNaNaNaNaNaNaNaNaNaNaNaNaNaNaNaNaa(lp28
NaNaNaNaNaNaNaNaNaNaNaNaNaNaNaNaNaNaNaNaa(lp29
NaNaNaNaNaNaNaNaNaNaNaNaNaNaNaNaNaNaNaNaa(lp30
NaNaNaNaNaNaNaNaNaNaNaNaNaNaNaNaNaNaNaNaa(lp31
NaNaNaNaNaNaNaNaNaNaNaNaNaNaNaNaNaNaNaNaa(lp32
NaNaNaNaNaNaNaNaNaNaNaNaNaNaNaNaNaNaNaNaa(lp33
NaNaNaNaNaNaNaNaNaNaNaNaNaNaNaNaNaNaNaNaa(lp34
NaNaNaNaNaNaNaNaNaNaNaNaNaNaNaNaNaNaNaNaa(lp35
NaNaNaNaNaNaNaNaNaNaNaNaNaNaNaNaNaNaNaNaa(lp36
NaNaNaNaNaNaNaNaNaNaNaNaNaNaNaNaNaNaNaNaa(lp37
NaNaNaNaNaNaNaNaNaNaNaNaNaNaNaNaNaNaNaNaa(lp38
NaNaNaNaNaNaNaNaNaNaNaNaNaNaNaNaNaNaNaNaa(lp39
NaNaNaNaNaNaNaNaNaNaNaNaNaNaNaNaNaNaNaNaa(lp40
NaNaNaNaNaNaNaNaNaNaNaNaNaNaNaNaNaNaNaNaa(lp41
NaNaNaNaNaNaNaNaNaNaNaNaNaNaNaNaNaNaNaNaa(lp42
NaNaNaNaNaNaNaNaNaNaNaNaNaNaNaNaNaNaNaNaaa(lp43
(lp44
NaNaNaNaNaNaNaNaNaNaNaNaNaNaNaNaNaNaNaNaa(lp45
NaNaNaNaNaNaNaNaNaNaNaNaNaNaNaNaNaNaNaNaa(lp46
NaNaNaNaNaNaNaNaNaNaNaNaNaNaNaNaNaNaNaNaa(lp47
NaNaNaNaNaNaNaNaNaNaNaNaNaNaNaNaNaNaNaNaa(lp48
NaNaNaNaNaNaNaNaNaNaNaNaNaNaNaNaNaNaNaNaa(lp49
NaNaNaNaNaNaNaNaNaNaNaNaNaNaNaNaNaNaNaNaa(lp50
NaNaNaNaNaNaNaNaNaNaNaNaNaNaNaNaNaNaNaNaa(lp51
NaNaNaNaNaNaNaNaNaNaNaNaNaNaNaNaNaNaNaNaa(lp52
NaNaNaNaNaNaNaNaNaNaNaNaNaNaNaNaNaNaNaNaa(lp53
NaNaNaNaNaNaNaNaNaNaNaNaNaNaNaNaNaNaNaNaa(lp54
NaNaNaNaNaNaNaNaNaNaNaNaNaNaNaNaNaNaNaNaa(lp55
NaNaNaNaNaNaNaNaNaNaNaNaNaNaNaNaNaNaNaNaa(lp56
NaNaNaNaNaNaNaNaNaNaNaNaNaNaNaNaNaNaNaNaa(lp57
NaNaNaNaNaNaNaNaNaNaNaNaNaNaNaNaNaNaNaNaa(lp58
NaNaNaNaNaNaNaNaNaNaNaNaNaNaNaNaNaNaNaNaa(lp59
NaNaNaNaNaNaNaNaNaNaNaNaNaNaNaNaNaNaNaNaa(lp60
NaNaNaNaNaNaNaNaNaNaNaNaNaNaNaNaNaNaNaNaa(lp61
NaNaNaNaNaNaNaNaNaNaNaNaNaNaNaNaNaNaNaNaa(lp62
NaNaNaNaNaNaNaNaNaNaNaNaNaNaNaNaNaNaNaNaa(lp63
NaNaNaNaNaNaNaNaNaNaNaNaNaNaNaNaNaNaNaNaaa(lp64
(lp65
NaNaNaNaNaNaNaNaNaNaNaNaNaNaNaNaNaNaNaNaa(lp66
NaNaNaNaNaNaNaNaNaNaNaNaNaNaNaNaNaNaNaNaa(lp67
NaNaNaNaNaNaNaNaNaNaNaNaNaNaNaNaNaNaNaNaa(lp68
NaNaNaNaNaNaNaNaNaNaNaNaNaNaNaNaNaNaNaNaa(lp69
NaNaNaNaNaNaNaNaNaNaNaNaNaNaNaNaNaNaNaNaa(lp70
NaNaNaNaNaNaNaNaNaNaNaNaNaNaNaNaNaNaNaNaa(lp71
NaNaNaNaNaNaNaNaNaNaNaNaNaNaNaNaNaNaNaNaa(lp72
NaNaNaNaNaNaNaNaNaNaNaNaNaNaNaNaNaNaNaNaa(lp73
NaNaNaNaNaNaNaNaNaNaNaNaNaNaNaNaNaNaNaNaa(lp74
NaNaNaNaNaNaNaNaNaNaNaNaNaNaNaNaNaNaNaNaa(lp75
NaNaNaNaNaNaNaNaNaNaNaNaNaNaNaNaNaNaNaNaa(lp76
NaNaNaNaNaNaNaNaNaNaNaNaNaNaNaNaNaNaNaNaa(lp77
NaNaNaNaNaNaNaNaNaNaNaNaNaNaNaNaNaNaNaNaa(lp78
NaNaNaNaNaNaNaNaNaNaNaNaNaNaNaNaNaNaNaNaa(lp79
NaNaNaNaNaNaNaNaNaNaNaNaNaNaNaNaNaNaNaNaa(lp80
NaNaNaNaNaNaNaNaNaNaNaNaNaNaNaNaNaNaNaNaa(lp81
NaNaNaNaNaNaNaNaNaNaNaNaNaNaNaNaNaNaNaNaa(lp82
NaNaNaNaNaNaNaNaNaNaNaNaNaNaNaNaNaNaNaNaa(lp83
NaNaNaNaNaNaNaNaNaNaNaNaNaNaNaNaNaNaNaNaa(lp84
NaNaNaNaNaNaNaNaNaNaNaNaNaNaNaNaNaNaNaNaaa(lp85
(lp86
NaNaNaNaNaNaNaNaNaNaNaNaNaNaNaNaNaNaNaNaa(lp87
NaNaNaNaNaNaNaNaNaNaNaNaNaNaNaNaNaNaNaNaa(lp88
NaNaNaNaNaNaNaNaNaNaNaNaNaNaNaNaNaNaNaNaa(lp89
NaNaNaNaNaNaNaNaNaNaNaNaNaNaNaNaNaNaNaNaa(lp90
NaNaNaNaNaNaNaNaNaNaNaNaNaNaNaNaNaNaNaNaa(lp91
NaNaNaNaNaNaNaNaNaNaNaNaNaNaNaNaNaNaNaNaa(lp92
NaNaNaNaNaNaNaNaNaNaNaNaNaNaNaNaNaNaNaNaa(lp93
NaNaNaNaNaNaNaNaNaNaNaNaNaNaNaNaNaNaNaNaa(lp94
NaNaNaNaNaNaNaNaNaNaNaNaNaNaNaNaNaNaNaNaa(lp95
NaNaNaNaNaNaNaNaNaNaNaNaNaNaNaNaNaNaNaNaa(lp96
NaNaNaNaNaNaNaNaNaNaNaNaNaNaNaNaNaNaNaNaa(lp97
NaNaNaNaNaNaNaNaNaNaNaNaNaNaNaNaNaNaNaNaa(lp98
NaNaNaNaNaNaNaNaNaNaNaNaNaNaNaNaNaNaNaNaa(lp99
NaNaNaNaNaNaNaNaNaNaNaNaNaNaNaNaNaNaNaNaa(lp100
NaNaNaNaNaNaNaNaNaNaNaNaNaNaNaNaNaNaNaNaa(lp101
NaNaNaNaNaNaNaNaNaNaNaNaNaNaNaNaNaNaNaNaa(lp102
NaNaNaNaNaNaNaNaNaNaNaNaNaNaNaNaNaNaNaNaa(lp103
NaNaNaNaNaNaNaNaNaNaNaNaNaNaNaNaNaNaNaNaa(lp104
NaNaNaNaNaNaNaNaNaNaNaNaNaNaNaNaNaNaNaNaa(lp105
NaNaNaNaNaNaNaNaNaNaNaNaNaNaNaNaNaNaNaNaaa(lp106
(lp107
NaNaNaNaNaNaNaNaNaNaNaNaNaNaNaNaNaNaNaNaa(lp108
NaNaNaNaNaNaNaNaNaNaNaNaNaNaNaNaNaNaNaNaa(lp109
NaNaNaNaNaNaNaNaNaNaNaNaNaNaNaNaNaNaNaNaa(lp110
NaNaNaNaNaNaNaNaNaNaNaNaNaNaNaNaNaNaNaNaa(lp111
NaNaNaNaNaNaNaNaNaNaNaNaNaNaNaNaNaNaNaNaa(lp112
NaNaNaNaNaNaNaNaNaNaNaNaNaNaNaNaNaNaNaNaa(lp113
NaNaNaNaNaNaNaNaNaNaNaNaNaNaNaNaNaNaNaNaa(lp114
NaNaNaNaNaNaNaNaNaNaNaNaNaNaNaNaNaNaNaNaa(lp115
NaNaNaNaNaNaNaNaNaNaNaNaNaNaNaNaNaNaNaNaa(lp116
NaNaNaNaNaNaNaNaNaNaNaNaNaNaNaNaNaNaNaNaa(lp117
NaNaNaNaNaNaNaNaNaNaNaNaNaNaNaNaNaNaNaNaa(lp118
NaNaNaNaNaNaNaNaNaNaNaNaNaNaNaNaNaNaNaNaa(lp119
NaNaNaNaNaNaNaNaNaNaNaNaNaNaNaNaNaNaNaNaa(lp120
NaNaNaNaNaNaNaNaNaNaNaNaNaNaNaNaNaNaNaNaa(lp121
NaNaNaNaNaNaNaNaNaNaNaNaNaNaNaNaNaNaNaNaa(lp122
NaNaNaNaNaNaNaNaNaNaNaNaNaNaNaNaNaNaNaNaa(lp123
NaNaNaNaNaNaNaNaNaNaNaNaNaNaNaNaNaNaNaNaa(lp124
NaNaNaNaNaNaNaNaNaNaNaNaNaNaNaNaNaNaNaNaa(lp125
NaNaNaNaNaNaNaNaNaNaNaNaNaNaNaNaNaNaNaNaa(lp126
NaNaNaNaNaNaNaNaNaNaNaNaNaNaNaNaNaNaNaNaaa(lp127
(lp128
NaNaNaNaNaNaNaNaNaNaNaNaNaNaNaNaNaNaNaNaa(lp129
NaNaNaNaNaNaNaNaNaNaNaNaNaNaNaNaNaNaNaNaa(lp130
NaNaNaNaNaNaNaNaNaNaNaNaNaNaNaNaNaNaNaNaa(lp131
NaNaNaNaNaNaNaNaNaNaNaNaNaNaNaNaNaNaNaNaa(lp132
NaNaNaNaNaNaNaNaNaNaNaNaNaNaNaNaNaNaNaNaa(lp133
NaNaNaNaNaNaNaNaNaNaNaNaNaNaNaNaNaNaNaNaa(lp134
NaNaNaNaNaNaNaNaNaNaNaNaNaNaNaNaNaNaNaNaa(lp135
NaNaNaNaNaNaNaNaNaNaNaNaNaNaNaNaNaNaNaNaa(lp136
NaNaNaNaNaNaNaNaNaNaNaNaNaNaNaNaNaNaNaNaa(lp137
NaNaNaNaNaNaNaNaNaNaNaNaNaNaNaNaNaNaNaNaa(lp138
NaNaNaNaNaNaNaNaNaNaNaNaNaNaNaNaNaNaNaNaa(lp139
NaNaNaNaNaNaNaNaNaNaNaNaNaNaNaNaNaNaNaNaa(lp140
NaNaNaNaNaNaNaNaNaNaNaNaNaNaNaNaNaNaNaNaa(lp141
NaNaNaNaNaNaNaNaNaNaNaNaNaNaNaNaNaNaNaNaa(lp142
NaNaNaNaNaNaNaNaNaNaNaNaNaNaNaNaNaNaNaNaa(lp143
NaNaNaNaNaNaNaNaNaNaNaNaNaNaNaNaNaNaNaNaa(lp144
NaNaNaNaNaNaNaNaNaNaNaNaNaNaNaNaNaNaNaNaa(lp145
NaNaNaNaNaNaNaNaNaNaNaNaNaNaNaNaNaNaNaNaa(lp146
NaNaNaNaNaNaNaNaNaNaNaNaNaNaNaNaNaNaNaNaa(lp147
NaNaNaNaNaNaNaNaNaNaNaNaNaNaNaNaNaNaNaNaaa(lp148
(lp149
NaNaNaNaccopy_reg
_reconstructor
p150
(c__main__
Mesecon
p151
c__builtin__
object
p152
Ntp153
Rp154
(dp155
S'connections'
p156
(lp157
sS'state'
p158
I0
sS'group'
p159
g150
(c__main__
Mesecons_group
p160
g152
Ntp161
Rp162
(dp163
S'inputs'
p164
c__builtin__
set
p165
((lp166
tp167
Rp168
sS'connected'
p169
g165
((lp170
g154
atp171
Rp172
sS'psources'
p173
I0
sS'outputs'
p174
g165
((lp175
tp176
Rp177
sbsS'connect'
p178
(lp179
(lp180
I0
aI0
aI1
aa(lp181
I0
aI0
aI-1
aa(lp182
I1
aI0
aI0
aa(lp183
I-1
aI0
aI0
aa(lp184
I0
aI-1
aI1
aa(lp185
I0
aI-1
aI-1
aa(lp186
I1
aI-1
aI0
aa(lp187
I-1
aI-1
aI0
aa(lp188
I0
aI1
aI1
aa(lp189
I0
aI1
aI-1
aa(lp190
I1
aI1
aI0
aa(lp191
I-1
aI1
aI0
aasS't'
p192
S'conductor'
p193
sbaNaNaNaNaNaNaNaNaNaNaNaNaNaNaNaa(lp194
NaNaNaNaNaNaNaNaNaNaNaNaNaNaNaNaNaNaNaNaa(lp195
NaNaNaNaNaNaNaNaNaNaNaNaNaNaNaNaNaNaNaNaa(lp196
NaNaNaNaNaNaNaNaNaNaNaNaNaNaNaNaNaNaNaNaa(lp197
NaNaNaNaNaNaNaNaNaNaNaNaNaNaNaNaNaNaNaNaa(lp198
NaNaNaNaNaNaNaNaNaNaNaNaNaNaNaNaNaNaNaNaa(lp199
NaNaNaNaNaNaNaNaNaNaNaNaNaNaNaNaNaNaNaNaa(lp200
NaNaNaNaNaNaNaNaNaNaNaNaNaNaNaNaNaNaNaNaa(lp201
NaNaNaNaNaNaNaNaNaNaNaNaNaNaNaNaNaNaNaNaa(lp202
NaNaNaNaNaNaNaNaNaNaNaNaNaNaNaNaNaNaNaNaa(lp203
NaNaNaNaNaNaNaNaNaNaNaNaNaNaNaNaNaNaNaNaa(lp204
NaNaNaNaNaNaNaNaNaNaNaNaNaNaNaNaNaNaNaNaa(lp205
NaNaNaNaNaNaNaNaNaNaNaNaNaNaNaNaNaNaNaNaa(lp206
NaNaNaNaNaNaNaNaNaNaNaNaNaNaNaNaNaNaNaNaa(lp207
NaNaNaNaNaNaNaNaNaNaNaNaNaNaNaNaNaNaNaNaa(lp208
NaNaNaNaNaNaNaNaNaNaNaNaNaNaNaNaNaNaNaNaa(lp209
NaNaNaNaNaNaNaNaNaNaNaNaNaNaNaNaNaNaNaNaa(lp210
NaNaNaNaNaNaNaNaNaNaNaNaNaNaNaNaNaNaNaNaa(lp211
NaNaNaNaNaNaNaNaNaNaNaNaNaNaNaNaNaNaNaNaa(lp212
NaNaNaNaNaNaNaNaNaNaNaNaNaNaNaNaNaNaNaNaaa(lp213
(lp214
NaNaNaNaNaNaNaNaNaNaNaNaNaNaNaNaNaNaNaNaa(lp215
NaNaNaNaNaNaNaNaNaNaNaNaNaNaNaNaNaNaNaNaa(lp216
NaNaNaNaNaNaNaNaNaNaNaNaNaNaNaNaNaNaNaNaa(lp217
NaNaNaNaNaNaNaNaNaNaNaNaNaNaNaNaNaNaNaNaa(lp218
NaNaNaNaNaNaNaNaNaNaNaNaNaNaNaNaNaNaNaNaa(lp219
NaNaNaNaNaNaNaNaNaNaNaNaNaNaNaNaNaNaNaNaa(lp220
NaNaNaNaNaNaNaNaNaNaNaNaNaNaNaNaNaNaNaNaa(lp221
NaNaNaNaNaNaNaNaNaNaNaNaNaNaNaNaNaNaNaNaa(lp222
NaNaNaNaNaNaNaNaNaNaNaNaNaNaNaNaNaNaNaNaa(lp223
NaNaNaNaNaNaNaNaNaNaNaNaNaNaNaNaNaNaNaNaa(lp224
NaNaNaNaNaNaNaNaNaNaNaNaNaNaNaNaNaNaNaNaa(lp225
NaNaNaNaNaNaNaNaNaNaNaNaNaNaNaNaNaNaNaNaa(lp226
NaNaNaNaNaNaNaNaNaNaNaNaNaNaNaNaNaNaNaNaa(lp227
NaNaNaNaNaNaNaNaNaNaNaNaNaNaNaNaNaNaNaNaa(lp228
NaNaNaNaNaNaNaNaNaNaNaNaNaNaNaNaNaNaNaNaa(lp229
NaNaNaNaNaNaNaNaNaNaNaNaNaNaNaNaNaNaNaNaa(lp230
NaNaNaNaNaNaNaNaNaNaNaNaNaNaNaNaNaNaNaNaa(lp231
NaNaNaNaNaNaNaNaNaNaNaNaNaNaNaNaNaNaNaNaa(lp232
NaNaNaNaNaNaNaNaNaNaNaNaNaNaNaNaNaNaNaNaa(lp233
NaNaNaNaNaNaNaNaNaNaNaNaNaNaNaNaNaNaNaNaaa(lp234
(lp235
NaNaNaNaNaNaNaNaNaNaNaNaNaNaNaNaNaNaNaNaa(lp236
NaNaNaNaNaNaNaNaNaNaNaNaNaNaNaNaNaNaNaNaa(lp237
NaNaNaNaNaNaNaNaNaNaNaNaNaNaNaNaNaNaNaNaa(lp238
NaNaNaNaNaNaNaNaNaNaNaNaNaNaNaNaNaNaNaNaa(lp239
NaNaNaNaNaNaNaNaNaNaNaNaNaNaNaNaNaNaNaNaa(lp240
NaNaNaNaNaNaNaNaNaNaNaNaNaNaNaNaNaNaNaNaa(lp241
NaNaNaNaNaNaNaNaNaNaNaNaNaNaNaNaNaNaNaNaa(lp242
NaNaNaNaNaNaNaNaNaNaNaNaNaNaNaNaNaNaNaNaa(lp243
NaNaNaNaNaNaNaNaNaNaNaNaNaNaNaNaNaNaNaNaa(lp244
NaNaNaNaNaNaNaNaNaNaNaNaNaNaNaNaNaNaNaNaa(lp245
NaNaNaNaNaNaNaNaNaNaNaNaNaNaNaNaNaNaNaNaa(lp246
NaNaNaNaNaNaNaNaNaNaNaNaNaNaNaNaNaNaNaNaa(lp247
NaNaNaNaNaNaNaNaNaNaNaNaNaNaNaNaNaNaNaNaa(lp248
NaNaNaNaNaNaNaNaNaNaNaNaNaNaNaNaNaNaNaNaa(lp249
NaNaNaNaNaNaNaNaNaNaNaNaNaNaNaNaNaNaNaNaa(lp250
NaNaNaNaNaNaNaNaNaNaNaNaNaNaNaNaNaNaNaNaa(lp251
NaNaNaNaNaNaNaNaNaNaNaNaNaNaNaNaNaNaNaNaa(lp252
NaNaNaNaNaNaNaNaNaNaNaNaNaNaNaNaNaNaNaNaa(lp253
NaNaNaNaNaNaNaNaNaNaNaNaNaNaNaNaNaNaNaNaa(lp254
NaNaNaNaNaNaNaNaNaNaNaNaNaNaNaNaNaNaNaNaaa(lp255
(lp256
NaNaNaNaNaNaNaNaNaNaNaNaNaNaNaNaNaNaNaNaa(lp257
NaNaNaNaNaNaNaNaNaNaNaNaNaNaNaNaNaNaNaNaa(lp258
NaNaNaNaNaNaNaNaNaNaNaNaNaNaNaNaNaNaNaNaa(lp259
NaNaNaNaNaNaNaNaNaNaNaNaNaNaNaNaNaNaNaNaa(lp260
NaNaNaNaNaNaNaNaNaNaNaNaNaNaNaNaNaNaNaNaa(lp261
NaNaNaNaNaNaNaNaNaNaNaNaNaNaNaNaNaNaNaNaa(lp262
NaNaNaNaNaNaNaNaNaNaNaNaNaNaNaNaNaNaNaNaa(lp263
NaNaNaNaNaNaNaNaNaNaNaNaNaNaNaNaNaNaNaNaa(lp264
NaNaNaNaNaNaNaNaNaNaNaNaNaNaNaNaNaNaNaNaa(lp265
NaNaNaNaNaNaNaNaNaNaNaNaNaNaNaNaNaNaNaNaa(lp266
NaNaNaNaNaNaNaNaNaNaNaNaNaNaNaNaNaNaNaNaa(lp267
NaNaNaNaNaNaNaNaNaNaNaNaNaNaNaNaNaNaNaNaa(lp268
NaNaNaNaNaNaNaNaNaNaNaNaNaNaNaNaNaNaNaNaa(lp269
NaNaNaNaNaNaNaNaNaNaNaNaNaNaNaNaNaNaNaNaa(lp270
NaNaNaNaNaNaNaNaNaNaNaNaNaNaNaNaNaNaNaNaa(lp271
NaNaNaNaNaNaNaNaNaNaNaNaNaNaNaNaNaNaNaNaa(lp272
NaNaNaNaNaNaNaNaNaNaNaNaNaNaNaNaNaNaNaNaa(lp273
NaNaNaNaNaNaNaNaNaNaNaNaNaNaNaNaNaNaNaNaa(lp274
NaNaNaNaNaNaNaNaNaNaNaNaNaNaNaNaNaNaNaNaa(lp275
NaNaNaNaNaNaNaNaNaNaNaNaNaNaNaNaNaNaNaNaaa(lp276
(lp277
NaNaNaNaNaNaNaNaNaNaNaNaNaNaNaNaNaNaNaNaa(lp278
NaNaNaNaNaNaNaNaNaNaNaNaNaNaNaNaNaNaNaNaa(lp279
NaNaNaNaNaNaNaNaNaNaNaNaNaNaNaNaNaNaNaNaa(lp280
NaNaNaNaNaNaNaNaNaNaNaNaNaNaNaNaNaNaNaNaa(lp281
NaNaNaNaNaNaNaNaNaNaNaNaNaNaNaNaNaNaNaNaa(lp282
NaNaNaNaNaNaNaNaNaNaNaNaNaNaNaNaNaNaNaNaa(lp283
NaNaNaNaNaNaNaNaNaNaNaNaNaNaNaNaNaNaNaNaa(lp284
NaNaNaNaNaNaNaNaNaNaNaNaNaNaNaNaNaNaNaNaa(lp285
NaNaNaNaNaNaNaNaNaNaNaNaNaNaNaNaNaNaNaNaa(lp286
NaNaNaNaNaNaNaNaNaNaNaNaNaNaNaNaNaNaNaNaa(lp287
NaNaNaNaNaNaNaNaNaNaNaNaNaNaNaNaNaNaNaNaa(lp288
NaNaNaNaNaNaNaNaNaNaNaNaNaNaNaNaNaNaNaNaa(lp289
NaNaNaNaNaNaNaNaNaNaNaNaNaNaNaNaNaNaNaNaa(lp290
NaNaNaNaNaNaNaNaNaNaNaNaNaNaNaNaNaNaNaNaa(lp291
NaNaNaNaNaNaNaNaNaNaNaNaNaNaNaNaNaNaNaNaa(lp292
NaNaNaNaNaNaNaNaNaNaNaNaNaNaNaNaNaNaNaNaa(lp293
NaNaNaNaNaNaNaNaNaNaNaNaNaNaNaNaNaNaNaNaa(lp294
NaNaNaNaNaNaNaNaNaNaNaNaNaNaNaNaNaNaNaNaa(lp295
NaNaNaNaNaNaNaNaNaNaNaNaNaNaNaNaNaNaNaNaa(lp296
NaNaNaNaNaNaNaNaNaNaNaNaNaNaNaNaNaNaNaNaaa(lp297
(lp298
NaNaNaNaNaNaNaNaNaNaNaNaNaNaNaNaNaNaNaNaa(lp299
NaNaNaNaNaNaNaNaNaNaNaNaNaNaNaNaNaNaNaNaa(lp300
NaNaNaNaNaNaNaNaNaNaNaNaNaNaNaNaNaNaNaNaa(lp301
NaNaNaNaNaNaNaNaNaNaNaNaNaNaNaNaNaNaNaNaa(lp302
NaNaNaNaNaNaNaNaNaNaNaNaNaNaNaNaNaNaNaNaa(lp303
NaNaNaNaNaNaNaNaNaNaNaNaNaNaNaNaNaNaNaNaa(lp304
NaNaNaNaNaNaNaNaNaNaNaNaNaNaNaNaNaNaNaNaa(lp305
NaNaNaNaNaNaNaNaNaNaNaNaNaNaNaNaNaNaNaNaa(lp306
NaNaNaNaNaNaNaNaNaNaNaNaNaNaNaNaNaNaNaNaa(lp307
NaNaNaNaNaNaNaNaNaNaNaNaNaNaNaNaNaNaNaNaa(lp308
NaNaNaNaNaNaNaNaNaNaNaNaNaNaNaNaNaNaNaNaa(lp309
NaNaNaNaNaNaNaNaNaNaNaNaNaNaNaNaNaNaNaNaa(lp310
NaNaNaNaNaNaNaNaNaNaNaNaNaNaNaNaNaNaNaNaa(lp311
NaNaNaNaNaNaNaNaNaNaNaNaNaNaNaNaNaNaNaNaa(lp312
NaNaNaNaNaNaNaNaNaNaNaNaNaNaNaNaNaNaNaNaa(lp313
NaNaNaNaNaNaNaNaNaNaNaNaNaNaNaNaNaNaNaNaa(lp314
NaNaNaNaNaNaNaNaNaNaNaNaNaNaNaNaNaNaNaNaa(lp315
NaNaNaNaNaNaNaNaNaNaNaNaNaNaNaNaNaNaNaNaa(lp316
NaNaNaNaNaNaNaNaNaNaNaNaNaNaNaNaNaNaNaNaa(lp317
NaNaNaNaNaNaNaNaNaNaNaNaNaNaNaNaNaNaNaNaaa(lp318
(lp319
NaNaNaNaNaNaNaNaNaNaNaNaNaNaNaNaNaNaNaNaa(lp320
NaNaNaNaNaNaNaNaNaNaNaNaNaNaNaNaNaNaNaNaa(lp321
NaNaNaNaNaNaNaNaNaNaNaNaNaNaNaNaNaNaNaNaa(lp322
NaNaNaNaNaNaNaNaNaNaNaNaNaNaNaNaNaNaNaNaa(lp323
NaNaNaNaNaNaNaNaNaNaNaNaNaNaNaNaNaNaNaNaa(lp324
NaNaNaNaNaNaNaNaNaNaNaNaNaNaNaNaNaNaNaNaa(lp325
NaNaNaNaNaNaNaNaNaNaNaNaNaNaNaNaNaNaNaNaa(lp326
NaNaNaNaNaNaNaNaNaNaNaNaNaNaNaNaNaNaNaNaa(lp327
NaNaNaNaNaNaNaNaNaNaNaNaNaNaNaNaNaNaNaNaa(lp328
NaNaNaNaNaNaNaNaNaNaNaNaNaNaNaNaNaNaNaNaa(lp329
NaNaNaNaNaNaNaNaNaNaNaNaNaNaNaNaNaNaNaNaa(lp330
NaNaNaNaNaNaNaNaNaNaNaNaNaNaNaNaNaNaNaNaa(lp331
NaNaNaNaNaNaNaNaNaNaNaNaNaNaNaNaNaNaNaNaa(lp332
NaNaNaNaNaNaNaNaNaNaNaNaNaNaNaNaNaNaNaNaa(lp333
NaNaNaNaNaNaNaNaNaNaNaNaNaNaNaNaNaNaNaNaa(lp334
NaNaNaNaNaNaNaNaNaNaNaNaNaNaNaNaNaNaNaNaa(lp335
NaNaNaNaNaNaNaNaNaNaNaNaNaNaNaNaNaNaNaNaa(lp336
NaNaNaNaNaNaNaNaNaNaNaNaNaNaNaNaNaNaNaNaa(lp337
NaNaNaNaNaNaNaNaNaNaNaNaNaNaNaNaNaNaNaNaa(lp338
NaNaNaNaNaNaNaNaNaNaNaNaNaNaNaNaNaNaNaNaaa(lp339
(lp340
NaNaNaNaNaNaNaNaNaNaNaNaNaNaNaNaNaNaNaNaa(lp341
NaNaNaNaNaNaNaNaNaNaNaNaNaNaNaNaNaNaNaNaa(lp342
NaNaNaNaNaNaNaNaNaNaNaNaNaNaNaNaNaNaNaNaa(lp343
NaNaNaNaNaNaNaNaNaNaNaNaNaNaNaNaNaNaNaNaa(lp344
NaNaNaNaNaNaNaNaNaNaNaNaNaNaNaNaNaNaNaNaa(lp345
NaNaNaNaNaNaNaNaNaNaNaNaNaNaNaNaNaNaNaNaa(lp346
NaNaNaNaNaNaNaNaNaNaNaNaNaNaNaNaNaNaNaNaa(lp347
NaNaNaNaNaNaNaNaNaNaNaNaNaNaNaNaNaNaNaNaa(lp348
NaNaNaNaNaNaNaNaNaNaNaNaNaNaNaNaNaNaNaNaa(lp349
NaNaNaNaNaNaNaNaNaNaNaNaNaNaNaNaNaNaNaNaa(lp350
NaNaNaNaNaNaNaNaNaNaNaNaNaNaNaNaNaNaNaNaa(lp351
NaNaNaNaNaNaNaNaNaNaNaNaNaNaNaNaNaNaNaNaa(lp352
NaNaNaNaNaNaNaNaNaNaNaNaNaNaNaNaNaNaNaNaa(lp353
NaNaNaNaNaNaNaNaNaNaNaNaNaNaNaNaNaNaNaNaa(lp354
NaNaNaNaNaNaNaNaNaNaNaNaNaNaNaNaNaNaNaNaa(lp355
NaNaNaNaNaNaNaNaNaNaNaNaNaNaNaNaNaNaNaNaa(lp356
NaNaNaNaNaNaNaNaNaNaNaNaNaNaNaNaNaNaNaNaa(lp357
NaNaNaNaNaNaNaNaNaNaNaNaNaNaNaNaNaNaNaNaa(lp358
NaNaNaNaNaNaNaNaNaNaNaNaNaNaNaNaNaNaNaNaa(lp359
NaNaNaNaNaNaNaNaNaNaNaNaNaNaNaNaNaNaNaNaaa(lp360
(lp361
NaNaNaNaNaNaNaNaNaNaNaNaNaNaNaNaNaNaNaNaa(lp362
NaNaNaNaNaNaNaNaNaNaNaNaNaNaNaNaNaNaNaNaa(lp363
NaNaNaNaNaNaNaNaNaNaNaNaNaNaNaNaNaNaNaNaa(lp364
NaNaNaNaNaNaNaNaNaNaNaNaNaNaNaNaNaNaNaNaa(lp365
NaNaNaNaNaNaNaNaNaNaNaNaNaNaNaNaNaNaNaNaa(lp366
NaNaNaNaNaNaNaNaNaNaNaNaNaNaNaNaNaNaNaNaa(lp367
NaNaNaNaNaNaNaNaNaNaNaNaNaNaNaNaNaNaNaNaa(lp368
NaNaNaNaNaNaNaNaNaNaNaNaNaNaNaNaNaNaNaNaa(lp369
NaNaNaNaNaNaNaNaNaNaNaNaNaNaNaNaNaNaNaNaa(lp370
NaNaNaNaNaNaNaNaNaNaNaNaNaNaNaNaNaNaNaNaa(lp371
NaNaNaNaNaNaNaNaNaNaNaNaNaNaNaNaNaNaNaNaa(lp372
NaNaNaNaNaNaNaNaNaNaNaNaNaNaNaNaNaNaNaNaa(lp373
NaNaNaNaNaNaNaNaNaNaNaNaNaNaNaNaNaNaNaNaa(lp374
NaNaNaNaNaNaNaNaNaNaNaNaNaNaNaNaNaNaNaNaa(lp375
NaNaNaNaNaNaNaNaNaNaNaNaNaNaNaNaNaNaNaNaa(lp376
NaNaNaNaNaNaNaNaNaNaNaNaNaNaNaNaNaNaNaNaa(lp377
NaNaNaNaNaNaNaNaNaNaNaNaNaNaNaNaNaNaNaNaa(lp378
NaNaNaNaNaNaNaNaNaNaNaNaNaNaNaNaNaNaNaNaa(lp379
NaNaNaNaNaNaNaNaNaNaNaNaNaNaNaNaNaNaNaNaa(lp380
NaNaNaNaNaNaNaNaNaNaNaNaNaNaNaNaNaNaNaNaaa(lp381
(lp382
NaNaNaNaNaNaNaNaNaNaNaNaNaNaNaNaNaNaNaNaa(lp383
NaNaNaNaNaNaNaNaNaNaNaNaNaNaNaNaNaNaNaNaa(lp384
NaNaNaNaNaNaNaNaNaNaNaNaNaNaNaNaNaNaNaNaa(lp385
NaNaNaNaNaNaNaNaNaNaNaNaNaNaNaNaNaNaNaNaa(lp386
NaNaNaNaNaNaNaNaNaNaNaNaNaNaNaNaNaNaNaNaa(lp387
NaNaNaNaNaNaNaNaNaNaNaNaNaNaNaNaNaNaNaNaa(lp388
NaNaNaNaNaNaNaNaNaNaNaNaNaNaNaNaNaNaNaNaa(lp389
NaNaNaNaNaNaNaNaNaNaNaNaNaNaNaNaNaNaNaNaa(lp390
NaNaNaNaNaNaNaNaNaNaNaNaNaNaNaNaNaNaNaNaa(lp391
NaNaNaNaNaNaNaNaNaNaNaNaNaNaNaNaNaNaNaNaa(lp392
NaNaNaNaNaNaNaNaNaNaNaNaNaNaNaNaNaNaNaNaa(lp393
NaNaNaNaNaNaNaNaNaNaNaNaNaNaNaNaNaNaNaNaa(lp394
NaNaNaNaNaNaNaNaNaNaNaNaNaNaNaNaNaNaNaNaa(lp395
NaNaNaNaNaNaNaNaNaNaNaNaNaNaNaNaNaNaNaNaa(lp396
NaNaNaNaNaNaNaNaNaNaNaNaNaNaNaNaNaNaNaNaa(lp397
NaNaNaNaNaNaNaNaNaNaNaNaNaNaNaNaNaNaNaNaa(lp398
NaNaNaNaNaNaNaNaNaNaNaNaNaNaNaNaNaNaNaNaa(lp399
NaNaNaNaNaNaNaNaNaNaNaNaNaNaNaNaNaNaNaNaa(lp400
NaNaNaNaNaNaNaNaNaNaNaNaNaNaNaNaNaNaNaNaa(lp401
NaNaNaNaNaNaNaNaNaNaNaNaNaNaNaNaNaNaNaNaaa(lp402
(lp403
NaNaNaNaNaNaNaNaNaNaNaNaNaNaNaNaNaNaNaNaa(lp404
NaNaNaNaNaNaNaNaNaNaNaNaNaNaNaNaNaNaNaNaa(lp405
NaNaNaNaNaNaNaNaNaNaNaNaNaNaNaNaNaNaNaNaa(lp406
NaNaNaNaNaNaNaNaNaNaNaNaNaNaNaNaNaNaNaNaa(lp407
NaNaNaNaNaNaNaNaNaNaNaNaNaNaNaNaNaNaNaNaa(lp408
NaNaNaNaNaNaNaNaNaNaNaNaNaNaNaNaNaNaNaNaa(lp409
NaNaNaNaNaNaNaNaNaNaNaNaNaNaNaNaNaNaNaNaa(lp410
NaNaNaNaNaNaNaNaNaNaNaNaNaNaNaNaNaNaNaNaa(lp411
NaNaNaNaNaNaNaNaNaNaNaNaNaNaNaNaNaNaNaNaa(lp412
NaNaNaNaNaNaNaNaNaNaNaNaNaNaNaNaNaNaNaNaa(lp413
NaNaNaNaNaNaNaNaNaNaNaNaNaNaNaNaNaNaNaNaa(lp414
NaNaNaNaNaNaNaNaNaNaNaNaNaNaNaNaNaNaNaNaa(lp415
NaNaNaNaNaNaNaNaNaNaNaNaNaNaNaNaNaNaNaNaa(lp416
NaNaNaNaNaNaNaNaNaNaNaNaNaNaNaNaNaNaNaNaa(lp417
NaNaNaNaNaNaNaNaNaNaNaNaNaNaNaNaNaNaNaNaa(lp418
NaNaNaNaNaNaNaNaNaNaNaNaNaNaNaNaNaNaNaNaa(lp419
NaNaNaNaNaNaNaNaNaNaNaNaNaNaNaNaNaNaNaNaa(lp420
NaNaNaNaNaNaNaNaNaNaNaNaNaNaNaNaNaNaNaNaa(lp421
NaNaNaNaNaNaNaNaNaNaNaNaNaNaNaNaNaNaNaNaa(lp422
NaNaNaNaNaNaNaNaNaNaNaNaNaNaNaNaNaNaNaNaaa(lp423
(lp424
NaNaNaNaNaNaNaNaNaNaNaNaNaNaNaNaNaNaNaNaa(lp425
NaNaNaNaNaNaNaNaNaNaNaNaNaNaNaNaNaNaNaNaa(lp426
NaNaNaNaNaNaNaNaNaNaNaNaNaNaNaNaNaNaNaNaa(lp427
NaNaNaNaNaNaNaNaNaNaNaNaNaNaNaNaNaNaNaNaa(lp428
NaNaNaNaNaNaNaNaNaNaNaNaNaNaNaNaNaNaNaNaa(lp429
NaNaNaNaNaNaNaNaNaNaNaNaNaNaNaNaNaNaNaNaa(lp430
NaNaNaNaNaNaNaNaNaNaNaNaNaNaNaNaNaNaNaNaa(lp431
NaNaNaNaNaNaNaNaNaNaNaNaNaNaNaNaNaNaNaNaa(lp432
NaNaNaNaNaNaNaNaNaNaNaNaNaNaNaNaNaNaNaNaa(lp433
NaNaNaNaNaNaNaNaNaNaNaNaNaNaNaNaNaNaNaNaa(lp434
NaNaNaNaNaNaNaNaNaNaNaNaNaNaNaNaNaNaNaNaa(lp435
NaNaNaNaNaNaNaNaNaNaNaNaNaNaNaNaNaNaNaNaa(lp436
NaNaNaNaNaNaNaNaNaNaNaNaNaNaNaNaNaNaNaNaa(lp437
NaNaNaNaNaNaNaNaNaNaNaNaNaNaNaNaNaNaNaNaa(lp438
NaNaNaNaNaNaNaNaNaNaNaNaNaNaNaNaNaNaNaNaa(lp439
NaNaNaNaNaNaNaNaNaNaNaNaNaNaNaNaNaNaNaNaa(lp440
NaNaNaNaNaNaNaNaNaNaNaNaNaNaNaNaNaNaNaNaa(lp441
NaNaNaNaNaNaNaNaNaNaNaNaNaNaNaNaNaNaNaNaa(lp442
NaNaNaNaNaNaNaNaNaNaNaNaNaNaNaNaNaNaNaNaa(lp443
NaNaNaNaNaNaNaNaNaNaNaNaNaNaNaNaNaNaNaNaaa(lp444
(lp445
NaNaNaNaNaNaNaNaNaNaNaNaNaNaNaNaNaNaNaNaa(lp446
NaNaNaNaNaNaNaNaNaNaNaNaNaNaNaNaNaNaNaNaa(lp447
NaNaNaNaNaNaNaNaNaNaNaNaNaNaNaNaNaNaNaNaa(lp448
NaNaNaNaNaNaNaNaNaNaNaNaNaNaNaNaNaNaNaNaa(lp449
NaNaNaNaNaNaNaNaNaNaNaNaNaNaNaNaNaNaNaNaa(lp450
NaNaNaNaNaNaNaNaNaNaNaNaNaNaNaNaNaNaNaNaa(lp451
NaNaNaNaNaNaNaNaNaNaNaNaNaNaNaNaNaNaNaNaa(lp452
NaNaNaNaNaNaNaNaNaNaNaNaNaNaNaNaNaNaNaNaa(lp453
NaNaNaNaNaNaNaNaNaNaNaNaNaNaNaNaNaNaNaNaa(lp454
NaNaNaNaNaNaNaNaNaNaNaNaNaNaNaNaNaNaNaNaa(lp455
NaNaNaNaNaNaNaNaNaNaNaNaNaNaNaNaNaNaNaNaa(lp456
NaNaNaNaNaNaNaNaNaNaNaNaNaNaNaNaNaNaNaNaa(lp457
NaNaNaNaNaNaNaNaNaNaNaNaNaNaNaNaNaNaNaNaa(lp458
NaNaNaNaNaNaNaNaNaNaNaNaNaNaNaNaNaNaNaNaa(lp459
NaNaNaNaNaNaNaNaNaNaNaNaNaNaNaNaNaNaNaNaa(lp460
NaNaNaNaNaNaNaNaNaNaNaNaNaNaNaNaNaNaNaNaa(lp461
NaNaNaNaNaNaNaNaNaNaNaNaNaNaNaNaNaNaNaNaa(lp462
NaNaNaNaNaNaNaNaNaNaNaNaNaNaNaNaNaNaNaNaa(lp463
NaNaNaNaNaNaNaNaNaNaNaNaNaNaNaNaNaNaNaNaa(lp464
NaNaNaNaNaNaNaNaNaNaNaNaNaNaNaNaNaNaNaNaaa.