(lp0
(lp1
(lp2
NaNaNaNaNaNaNaNaNaNaNaNaNaNaNaNaNaNaNaNaa(lp3
NaNaNaNaNaNaNaNaNaNaNaNaNaNaNaNaNaNaNaNaa(lp4
NaNaNaNaNaNaNaNaNaNaNaNaNaNaNaNaNaNaNaNaa(lp5
NaNaNaNaNaNaNaNaNaNaNaNaNaNaNaNaNaNaNaNaa(lp6
NaNaNaNaNaNaNaNaNaNaNaNaNaNaNaNaNaNaNaNaa(lp7
NaNaNaNaNaNaNaNaNaNaNaNaNaNaNaNaNaNaNaNaa(lp8
NaNaNaNaNaNaNaNaNaNaNaNaNaNaNaNaNaNaNaNaa(lp9
NaNaNaNaNaNaNaNaNaNaNaNaNaNaNaNaNaNaNaNaa(lp10
NaNaNaNaNaNaNaNaNaNaNaNaNaNaNaNaNaNaNaNaa(lp11
NaNaNaNaNaNaNaNaNaNaNaNaNaNaNaNaNaNaNaNaa(lp12
NaNaNaNaNaNaNaNaNaNaNaNaNaNaNaNaNaNaNaNaa(lp13
NaNaNaNaNaNaNaNaNaNaNaNaNaNaNaNaNaNaNaNaa(lp14
NaNaNaNaNaNaNaNaNaNaNaNaNaNaNaNaNaNaNaNaa(lp15
NaNaNaNaNaNaNaNaNaNaNaNaNaNaNaNaNaNaNaNaa(lp16
NaNaNaNaNaNaNaNaNaNaNaNaNaNaNaNaNaNaNaNaa(lp17
NaNaNaNaNaNaNaNaNaNaNaNaNaNaNaNaNaNaNaNaa(lp18
NaNaNaNaNaNaNaNaNaNaNaNaNaNaNaNaNaNaNaNaa(lp19
NaNaNaNaNaNaNaNaNaNaNaNaNaNaNaNaNaNaNaNaa(lp20
NaNaNaNaNaNaNaNaNaNaNaNaNaNaNaNaNaNaNaNaa(lp21
NaNaNaNaNaNaNaNaNaNaNaNaNaNaNaNaNaNaNaNaaa(lp22
(lp23
NaNaNaNaNaNaNaNaNaNaNaNaNaNaNaNaNaNaNaNaa(lp24
NaNaNaNaNaNaNaNaNaNaNaNaNaNaNaNaNaNaNaNaa(lp25
NaNaNaNaNaNaNaNaNaNaNaNaNaNaNaNaNaNaNaNaa(lp26
NaNaNaNaNaNaNaNaNaNaNaNaNaNaNaNaNaNaNaNaa(lp27
NaNaNaNaNaNaNaNaNaNaNaNaNaNaNaNaNaNaNaNaa(lp28
NaNaNaNaNaNaNaNaNaNaNaNaNaNaNaNaNaNaNaNaa(lp29
NaNaNaNaNaNaNaNaNaNaNaNaNaNaNaNaNaNaNaNaa(lp30
NaNaNaNaNaNaNaNaNaNaNaNaNaNaNaNaNaNaNaNaa(lp31
NaNaNaNaNaNaNaNaNaNaNaNaNaNaNaNaNaNaNaNaa(lp32
NaNaNaNaNaNaNaNaNaNaNaNaNaNaNaNaNaNaNaNaa(lp33
NaNaNaNaNaNaNaNaNaNaNaNaNaNaNaNaNaNaNaNaa(lp34
NaNaNaNaNaNaNaNaNaNaNaNaNaNaNaNaNaNaNaNaa(lp35
NaNaNaNaNaNaNaNaNaNaNaNaNaNaNaNaNaNaNaNaa(lp36
NaNaNaNaNaNaNaNaNaNaNaNaNaNaNaNaNaNaNaNaa(lp37
NaNaNaNaNaNaNaNaNaNaNaNaNaNaNaNaNaNaNaNaa(lp38
NaNaNaNaNaNaNaNaNaNaNaNaNaNaNaNaNaNaNaNaa(lp39
NaNaNaNaNaNaNaNaNaNaNaNaNaNaNaNaNaNaNaNaa(lp40
NaNaNaNaNaNaNaNaNaNaNaNaNaNaNaNaNaNaNaNaa(lp41
NaNaNaNaNaNaNaNaNaNaNaNaNaNaNaNaNaNaNaNaa(lp42
NaNaNaNaNaNaNaNaNaNaNaNaNaNaNaNaNaNaNaNaaa(lp43
(lp44
NaNaNaNaNaNaNaNaNaNaNaNaNaNaNaNaNaNaNaNaa(lp45
NaNaNaNaNaNaNaNaNaNaNaNaNaNaNaNaNaNaNaNaa(lp46
NaNaNaNaNaNaNaNaNaNaNaNaNaNaNaNaNaNaNaNaa(lp47
NaNaNaNaNaNaNaNaNaNaNaNaNaNaNaNaNaNaNaNaa(lp48
NaNaNaNaNaNaNaNaNaNaNaNaNaNaNaNaNaNaNaNaa(lp49
NaNaNaNaNaNaNaNaNaNaNaNaNaNaNaNaNaNaNaNaa(lp50
NaNaNaNaNaNaNaNaNaNaNaNaNaNaNaNaNaNaNaNaa(lp51
NaNaNaNaNaNaNaNaNaNaNaNaNaNaNaNaNaNaNaNaa(lp52
NaNaNaNaNaNaNaNaNaNaNaNaNaNaNaNaNaNaNaNaa(lp53
NaNaNaNaNaNaNaNaNaNaNaNaNaNaNaNaNaNaNaNaa(lp54
NaNaNaNaNaNaNaNaNaNaNaNaNaNaNaNaNaNaNaNaa(lp55
NaNaNaNaNaNaNaNaNaNaNaNaNaNaNaNaNaNaNaNaa(lp56
NaNaNaNaNaNaNaNaNaNaNaNaNaNaNaNaNaNaNaNaa(lp57
NaNaNaNaNaNaNaNaNaNaNaNaNaNaNaNaNaNaNaNaa(lp58
NaNaNaNaNaNaNaNaNaNaNaNaNaNaNaNaNaNaNaNaa(lp59
NaNaNaNaNaNaNaNaNaNaNaNaNaNaNaNaNaNaNaNaa(lp60
NaNaNaNaNaNaNaNaNaNaNaNaNaNaNaNaNaNaNaNaa(lp61
NaNaNaNaNaNaNaNaNaNaNaNaNaNaNaNaNaNaNaNaa(lp62
NaNaNaNaNaNaNaNaNaNaNaNaNaNaNaNaNaNaNaNaa(lp63
NaNaNaNaNaNaNaNaNaNaNaNaNaNaNaNaNaNaNaNaaa(lp64
(lp65
NaNaNaNaNaNaNaNaNaNaNaNaNaNaNaNaNaNaNaNaa(lp66
NaNaNaNaNaNaNaNaNaNaNaNaNaNaNaNaNaNaNaNaa(lp67
NaNaNaNaNaNaNaNaNaNaNaNaNaNaNaNaNaNaNaNaa(lp68
NaNaNaNaNaNaNaNaNaNaNaNaNaNaNaNaNaNaNaNaa(lp69
NaNaNaNaNaNaNaNaNaNaNaNaNaNaNaNaNaNaNaNaa(lp70
NaNaNaNaNaNaNaNaNaNaNaNaNaNaNaNaNaNaNaNaa(lp71
NaNaNaNaNaNaNaNaNaNaNaNaNaNaNaNaNaNaNaNaa(lp72
NaNaNaNaNaNaNaNaNaNaNaNaNaNaNaNaNaNaNaNaa(lp73
NaNaNaNaNaNaNaNaNaNaNaNaNaNaNaNaNaNaNaNaa(lp74
NaNaNaNaNaNaNaNaNaNaNaNaNaNaNaNaNaNaNaNaa(lp75
NaNaNaNaNaNaNaNaNaNaNaNaNaNaNaNaNaNaNaNaa(lp76
NaNaNaNaNaNaNaNaNaNaNaNaNaNaNaNaNaNaNaNaa(lp77
NaNaNaNaNaNaNaNaNaNaNaNaNaNaNaNaNaNaNaNaa(lp78
NaNaNaNaNaNaNaNaNaNaNaNaNaNaNaNaNaNaNaNaa(lp79
NaNaNaNaNaNaNaNaNaNaNaNaNaNaNaNaNaNaNaNaa(lp80
NaNaNaNaNaNaNaNaNaNaNaNaNaNaNaNaNaNaNaNaa(lp81
NaNaNaNaNaNaNaNaNaNaNaNaNaNaNaNaNaNaNaNaa(lp82
NaNaNaNaNaNaNaNaNaNaNaNaNaNaNaNaNaNaNaNaa(lp83
NaNaNaNaNaNaNaNaNaNaNaNaNaNaNaNaNaNaNaNaa(lp84
NaNaNaNaNaNaNaNaNaNaNaNaNaNaNaNaNaNaNaNaaa(lp85
(lp86
NaNaNaNaNaNaNaNaNaNaNaNaNaNaNaNaNaNaNaNaa(lp87
NaNaNaNaNaNaNaNaNaNaNaNaNaNaNaNaNaNaNaNaa(lp88
NaNaNaNaNaNaNaNaNaNaNaNaNaNaNaNaNaNaNaNaa(lp89
NaNaNaNaNaNaNaNaNaNaNaNaNaNaNaNaNaNaNaNaa(lp90
NaNaNaNaNaNaNaNaNaNaNaNaNaNaNaNaNaNaNaNaa(lp91
NaNaNaNaNaNaNaNaNaNaNaNaNaNaNaNaNaNaNaNaa(lp92
NaNaNaNaNaNaNaNaNaNaNaNaNaNaNaNaNaNaNaNaa(lp93
NaNaNaNaNaNaNaNaNaNaNaNaNaNaNaNaNaNaNaNaa(lp94
NaNaNaNaNaNaNaNaNaNaNaNaNaNaNaNaNaNaNaNaa(lp95
NaNaNaNaNaNaNaNaNaNaNaNaNaNaNaNaNaNaNaNaa(lp96
NaNaNaNaNaNaNaNaNaNaNaNaNaNaNaNaNaNaNaNaa(lp97
NaNaNaNaNaNaNaNaNaNaNaNaNaNaNaNaNaNaNaNaa(lp98
NaNaNaNaNaNaNaNaNaNaNaNaNaNaNaNaNaNaNaNaa(lp99
NaNaNaNaNaNaNaNaNaNaNaNaNaNaNaNaNaNaNaNaa(lp100
NaNaNaNaNaNaNaNaNaNaNaNaNaNaNaNaNaNaNaNaa(lp101
NaNaNaNaNaNaNaNaNaNaNaNaNaNaNaNaNaNaNaNaa(lp102
NaNaNaNaNaNaNaNaNaNaNaNaNaNaNaNaNaNaNaNaa(lp103
NaNaNaNaNaNaNaNaNaNaNaNaNaNaNaNaNaNaNaNaa(lp104
NaNaNaNaNaNaNaNaNaNaNaNaNaNaNaNaNaNaNaNaa(lp105
NaNaNaNaNaNaNaNaNaNaNaNaNaNaNaNaNaNaNaNaaa(lp106
(lp107
NaNaNaNaNaNaNaNaNaNaNaNaNaNaNaNaNaNaNaNaa(lp108
NaNaNaNaNaNaNaNaNaNaNaNaNaNaNaNaNaNaNaNaa(lp109
NaNaNaNaNaNaNaNaNaNaNaNaNaNaNaNaNaNaNaNaa(lp110
NaNaNaNaNaNaNaNaNaNaNaNaNaNaNaNaNaNaNaNaa(lp111
NaNaNaNaNaNaNaNaNaNaNaNaNaNaNaNaNaNaNaNaa(lp112
NaNaNaNaNaNaNaNaNaNaNaNaNaNaNaNaNaNaNaNaa(lp113
NaNaNaNaNaNaNaNaNaNaNaNaNaNaNaNaNaNaNaNaa(lp114
NaNaNaNaNaNaNaNaNaNaNaNaNaNaNaNaNaNaNaNaa(lp115
NaNaNaNaNaNaNaNaNaNaNaNaNaNaNaNaNaNaNaNaa(lp116
NaNaNaNaNaNaNaNaNaNaNaNaNaNaNaNaNaNaNaNaa(lp117
NaNaNaNaNaNaNaNaNaNaNaNaNaNaNaNaNaNaNaNaa(lp118
NaNaNaNaNaNaNaNaNaNaNaNaNaNaNaNaNaNaNaNaa(lp119
NaNaNaNaNaNaNaNaNaNaNaNaNaNaNaNaNaNaNaNaa(lp120
NaNaNaNaNaNaNaNaNaNaNaNaNaNaNaNaNaNaNaNaa(lp121
NaNaNaNaNaNaNaNaNaNaNaNaNaNaNaNaNaNaNaNaa(lp122
NaNaNaNaNaNaNaNaNaNaNaNaNaNaNaNaNaNaNaNaa(lp123
NaNaNaNaNaNaNaNaNaNaNaNaNaNaNaNaNaNaNaNaa(lp124
NaNaNaNaNaNaNaNaNaNaNaNaNaNaNaNaNaNaNaNaa(lp125
NaNaNaNaNaNaNaNaNaNaNaNaNaNaNaNaNaNaNaNaa(lp126
NaNaNaNaNaNaNaNaNaNaNaNaNaNaNaNaNaNaNaNaaa(lp127
(lp128
NaNaNaNaNaNaNaNaNaNaNaNaNaNaNaNaNaNaNaNaa(lp129
NaNaNaNaNaNaNaNaNaNaNaNaNaNaNaNaNaNaNaNaa(lp130
NaNaNaNaNaNaNaNaNaNaNaNaNaNaNaNaNaNaNaNaa(lp131
NaNaNaNaNaNaNaNaNaNaNaNaNaNaNaNaNaNaNaNaa(lp132
NaNaNaNaNaNaNaNaNaNaNaNaNaNaNaNaNaNaNaNaa(lp133
NaNaNaNaNaNaNaNaNaNaNaNaNaNaNaNaNaNaNaNaa(lp134
NaNaNaNaNaNaNaNaNaNaNaNaNaNaNaNaNaNaNaNaa(lp135
NaNaNaNaNaNaNaNaNaNaNaNaNaNaNaNaNaNaNaNaa(lp136
NaNaNaNaNaNaNaNaNaNaNaNaNaNaNaNaNaNaNaNaa(lp137
NaNaNaNaNaNaNaNaNaNaNaNaNaNaNaNaNaNaNaNaa(lp138
NaNaNaNaNaNaNaNaNaNaNaNaNaNaNaNaNaNaNaNaa(lp139
NaNaNaNaNaNaNaNaNaNaNaNaNaNaNaNaNaNaNaNaa(lp140
NaNaNaNaNaNaNaNaNaNaNaNaNaNaNaNaNaNaNaNaa(lp141
NaNaNaNaNaNaNaNaNaNaNaNaNaNaNaNaNaNaNaNaa(lp142
NaNaNaNaNaNaNaNaNaNaNaNaNaNaNaNaNaNaNaNaa(lp143
NaNaNaNaNaNaNaNaNaNaNaNaNaNaNaNaNaNaNaNaa(lp144
NaNaNaNaNaNaNaNaNaNaNaNaNaNaNaNaNaNaNaNaa(lp145
NaNaNaNaNaNaNaNaNaNaNaNaNaNaNaNaNaNaNaNaa(lp146
NaNaNaNaNaNaNaNaNaNaNaNaNaNaNaNaNaNaNaNaa(lp147
NaNaNaNaNaNaNaNaNaNaNaNaNaNaNaNaNaNaNaNaaa(lp148
(lp149
NaNaNaNaNaNaNaNaNaNaNaNaNaNaNaNaNaNaNaNaa(lp150
NaNaNaNaNaNaNaNaNaNaNaNaNaNaNaNaNaNaNaNaa(lp151
NaNaNaNaNaNaNaNaNaNaNaNaNaNaNaNaNaNaNaNaa(lp152
NaNaNaNaNaNaNaNaNaNaNaNaNaNaNaNaNaNaNaNaa(lp153
NaNaNaNaNaNaNaNaNaNaNaNaNaNaNaNaNaNaNaNaa(lp154
NaNaNaNaNaNaNaNaNaNaNaNaNaNaNaNaNaNaNaNaa(lp155
NaNaNaNaNaNaNaNaNaNaNaNaNaNaNaNaNaNaNaNaa(lp156
NaNaNaNaNaNaNaNaNaNaNaNaNaNaNaNaNaNaNaNaa(lp157
NaNaNaNaNaNaNaNaNaNaNaNaNaNaNaNaNaNaNaNaa(lp158
NaNaNaNaNaNaNaNaNaNaNaNaNaNaNaNaNaNaNaNaa(lp159
NaNaNaNaNaNaNaNaNaNaNaNaNaNaNaNaNaNaNaNaa(lp160
NaNaNaNaNaNaNaNaNaNaNaNaNaNaNaNaNaNaNaNaa(lp161
NaNaNaNaNaNaNaNaNaNaNaNaNaNaNaNaNaNaNaNaa(lp162
NaNaNaNaNaNaNaNaNaNaNaNaNaNaNaNaNaNaNaNaa(lp163
NaNaNaNaNaNaNaNaNaNaNaNaNaNaNaNaNaNaNaNaa(lp164
NaNaNaNaNaNaNaNaNaNaNaNaNaNaNaNaNaNaNaNaa(lp165
NaNaNaNaNaNaNaNaNaNaNaNaNaNaNaNaNaNaNaNaa(lp166
NaNaNaNaNaNaNaNaNaNaNaNaNaNaNaNaNaNaNaNaa(lp167
NaNaNaNaNaNaNaNaNaNaNaNaNaNaNaNaNaNaNaNaa(lp168
NaNaNaNaNaNaNaNaNaNaNaNaNaNaNaNaNaNaNaNaaa(lp169
(lp170
NaNaNaNaNaNa(i__main__
Switch
p171
(dp172
S'inputs'
p173
(lp174
sS'istates'
p175
(lp176
sS'outputs'
p177
(lp178
(lp179
I0
aI0
aI1
aa(lp180
I0
aI0
aI-1
aa(lp181
I1
aI0
aI0
aa(lp182
I-1
aI0
aI0
aa(lp183
I0
aI-1
aI1
aa(lp184
I0
aI-1
aI-1
aa(lp185
I1
aI-1
aI0
aa(lp186
I-1
aI-1
aI0
aa(lp187
I0
aI1
aI1
aa(lp188
I0
aI1
aI-1
aa(lp189
I1
aI1
aI0
aa(lp190
I-1
aI1
aI0
aasS'groups_o'
p191
(lp192
ccopy_reg
_reconstructor
p193
(c__main__
Mesecons_group
p194
c__builtin__
object
p195
Ntp196
Rp197
(dp198
g173
c__builtin__
set
p199
((lp200
(g171
I0
tp201
atp202
Rp203
sS'connected'
p204
g199
((lp205
tp206
Rp207
sS'psources'
p208
I0
sg177
g199
((lp209
tp210
Rp211
sbag193
(g194
g195
Ntp212
Rp213
(dp214
g173
g199
((lp215
(g171
I1
tp216
atp217
Rp218
sg204
g199
((lp219
tp220
Rp221
sg208
I0
sg177
g199
((lp222
tp223
Rp224
sbag193
(g194
g195
Ntp225
Rp226
(dp227
g173
g199
((lp228
(g171
I2
tp229
atp230
Rp231
sg204
g199
((lp232
tp233
Rp234
sg208
I0
sg177
g199
((lp235
((i__main__
ClassContainer._Piston0
p236
(dp237
g173
g178
sg175
(lp238
I0
aI0
aI0
aI00
aI0
aI0
aI0
aI0
aI0
aI0
aI0
aI0
asg177
(lp239
sg191
(lp240
sS'unpushable'
p241
I00
sS'groups_i'
p242
(lp243
g193
(g194
g195
Ntp244
Rp245
(dp246
g173
g199
((lp247
tp248
Rp249
sg204
g199
((lp250
tp251
Rp252
sg208
I0
sg177
g199
((lp253
(g236
I0
tp254
atp255
Rp256
sbag193
(g194
g195
Ntp257
Rp258
(dp259
g173
g199
((lp260
tp261
Rp262
sg204
g199
((lp263
tp264
Rp265
sg208
I0
sg177
g199
((lp266
(g236
I1
tp267
atp268
Rp269
sbag193
(g194
g195
Ntp270
Rp271
(dp272
g173
g199
((lp273
tp274
Rp275
sg204
g199
((lp276
tp277
Rp278
sg208
I0
sg177
g199
((lp279
(g236
I2
tp280
atp281
Rp282
sbag226
ag193
(g194
g195
Ntp283
Rp284
(dp285
g173
g199
((lp286
tp287
Rp288
sg204
g199
((lp289
tp290
Rp291
sg208
I0
sg177
g199
((lp292
(g236
I4
tp293
atp294
Rp295
sbag193
(g194
g195
Ntp296
Rp297
(dp298
g173
g199
((lp299
tp300
Rp301
sg204
g199
((lp302
tp303
Rp304
sg208
I0
sg177
g199
((lp305
(g236
I5
tp306
atp307
Rp308
sbag193
(g194
g195
Ntp309
Rp310
(dp311
g173
g199
((lp312
tp313
Rp314
sg204
g199
((lp315
tp316
Rp317
sg208
I0
sg177
g199
((lp318
(g236
I6
tp319
atp320
Rp321
sbag193
(g194
g195
Ntp322
Rp323
(dp324
g173
g199
((lp325
tp326
Rp327
sg204
g199
((lp328
tp329
Rp330
sg208
I0
sg177
g199
((lp331
(g236
I7
tp332
atp333
Rp334
sbag193
(g194
g195
Ntp335
Rp336
(dp337
g173
g199
((lp338
tp339
Rp340
sg204
g199
((lp341
tp342
Rp343
sg208
I0
sg177
g199
((lp344
(g236
I8
tp345
atp346
Rp347
sbag193
(g194
g195
Ntp348
Rp349
(dp350
g173
g199
((lp351
tp352
Rp353
sg204
g199
((lp354
tp355
Rp356
sg208
I0
sg177
g199
((lp357
(g236
I9
tp358
atp359
Rp360
sbag193
(g194
g195
Ntp361
Rp362
(dp363
g173
g199
((lp364
tp365
Rp366
sg204
g199
((lp367
tp368
Rp369
sg208
I0
sg177
g199
((lp370
(g236
I10
tp371
atp372
Rp373
sbag193
(g194
g195
Ntp374
Rp375
(dp376
g173
g199
((lp377
tp378
Rp379
sg204
g199
((lp380
tp381
Rp382
sg208
I0
sg177
g199
((lp383
(g236
I11
tp384
atp385
Rp386
sbasS'boss'
p387
Pself
sS'connections'
p388
(lp389
sS't'
p390
S'thing'
p391
sS'st'
p392
I00
sS'y'
p393
I0
sS'x'
p394
I9
sS'ostates'
p395
(lp396
sS'z'
p397
I6
sbI3
tp398
atp399
Rp400
sbag193
(g194
g195
Ntp401
Rp402
(dp403
g173
g199
((lp404
(g171
I3
tp405
atp406
Rp407
sg204
g199
((lp408
tp409
Rp410
sg208
I0
sg177
g199
((lp411
tp412
Rp413
sbag193
(g194
g195
Ntp414
Rp415
(dp416
g173
g199
((lp417
(g171
I4
tp418
atp419
Rp420
sg204
g199
((lp421
tp422
Rp423
sg208
I0
sg177
g199
((lp424
tp425
Rp426
sbag193
(g194
g195
Ntp427
Rp428
(dp429
g173
g199
((lp430
(g171
I5
tp431
atp432
Rp433
sg204
g199
((lp434
tp435
Rp436
sg208
I0
sg177
g199
((lp437
tp438
Rp439
sbag193
(g194
g195
Ntp440
Rp441
(dp442
g173
g199
((lp443
(g171
I6
tp444
atp445
Rp446
sg204
g199
((lp447
tp448
Rp449
sg208
I0
sg177
g199
((lp450
tp451
Rp452
sbag193
(g194
g195
Ntp453
Rp454
(dp455
g173
g199
((lp456
(g171
I7
tp457
atp458
Rp459
sg204
g199
((lp460
tp461
Rp462
sg208
I0
sg177
g199
((lp463
tp464
Rp465
sbag193
(g194
g195
Ntp466
Rp467
(dp468
g173
g199
((lp469
(g171
I8
tp470
atp471
Rp472
sg204
g199
((lp473
tp474
Rp475
sg208
I0
sg177
g199
((lp476
tp477
Rp478
sbag193
(g194
g195
Ntp479
Rp480
(dp481
g173
g199
((lp482
(g171
I9
tp483
atp484
Rp485
sg204
g199
((lp486
tp487
Rp488
sg208
I0
sg177
g199
((lp489
tp490
Rp491
sbag193
(g194
g195
Ntp492
Rp493
(dp494
g173
g199
((lp495
(g171
I10
tp496
atp497
Rp498
sg204
g199
((lp499
tp500
Rp501
sg208
I0
sg177
g199
((lp502
tp503
Rp504
sbag193
(g194
g195
Ntp505
Rp506
(dp507
g173
g199
((lp508
(g171
I11
tp509
atp510
Rp511
sg204
g199
((lp512
tp513
Rp514
sg208
I0
sg177
g199
((lp515
tp516
Rp517
sbasg242
(lp518
sg388
(lp519
(lp520
g197
aa(lp521
g213
aa(lp522
g226
aa(lp523
g402
aa(lp524
g415
aa(lp525
g428
aa(lp526
g441
aa(lp527
g454
aa(lp528
g467
aa(lp529
g480
aa(lp530
g493
aa(lp531
g506
aasg390
g391
sg395
(lp532
I0
aI0
aI0
aI0
aI0
aI0
aI0
aI0
aI0
aI0
aI0
aI0
asbaNaNaNaNaNaNaNaNaNaNaNaNaNaa(lp533
NaNaNaNaNaNaNaNaNaNaNaNaNaNaNaNaNaNaNaNaa(lp534
NaNaNaNaNaNaNaNaNaNaNaNaNaNaNaNaNaNaNaNaa(lp535
NaNaNaNaNaNaNaNaNaNaNaNaNaNaNaNaNaNaNaNaa(lp536
NaNaNaNaNaNaNaNaNaNaNaNaNaNaNaNaNaNaNaNaa(lp537
NaNaNaNaNaNaNaNaNaNaNaNaNaNaNaNaNaNaNaNaa(lp538
NaNaNaNaNaNaNaNaNaNaNaNaNaNaNaNaNaNaNaNaa(lp539
NaNaNaNaNaNaNaNaNaNaNaNaNaNaNaNaNaNaNaNaa(lp540
NaNaNaNaNaNaNaNaNaNaNaNaNaNaNaNaNaNaNaNaa(lp541
NaNaNaNaNaNaNaNaNaNaNaNaNaNaNaNaNaNaNaNaa(lp542
NaNaNaNaNaNaNaNaNaNaNaNaNaNaNaNaNaNaNaNaa(lp543
NaNaNaNaNaNaNaNaNaNaNaNaNaNaNaNaNaNaNaNaa(lp544
NaNaNaNaNaNaNaNaNaNaNaNaNaNaNaNaNaNaNaNaa(lp545
NaNaNaNaNaNaNaNaNaNaNaNaNaNaNaNaNaNaNaNaa(lp546
NaNaNaNaNaNaNaNaNaNaNaNaNaNaNaNaNaNaNaNaa(lp547
NaNaNaNaNaNaNaNaNaNaNaNaNaNaNaNaNaNaNaNaa(lp548
NaNaNaNaNaNaNaNaNaNaNaNaNaNaNaNaNaNaNaNaa(lp549
NaNaNaNaNaNaNaNaNaNaNaNaNaNaNaNaNaNaNaNaa(lp550
NaNaNaNaNaNaNaNaNaNaNaNaNaNaNaNaNaNaNaNaa(lp551
NaNaNaNaNaNaNaNaNaNaNaNaNaNaNaNaNaNaNaNaaa(lp552
(lp553
NaNaNaNaNaNag236
aNaNaNaNaNaNaNaNaNaNaNaNaNaa(lp554
NaNaNaNaNaNaNaNaNaNaNaNaNaNaNaNaNaNaNaNaa(lp555
NaNaNaNaNaNaNaNaNaNaNaNaNaNaNaNaNaNaNaNaa(lp556
NaNaNaNaNaNaNaNaNaNaNaNaNaNaNaNaNaNaNaNaa(lp557
NaNaNaNaNaNaNaNaNaNaNaNaNaNaNaNaNaNaNaNaa(lp558
NaNaNaNaNaNaNaNaNaNaNaNaNaNaNaNaNaNaNaNaa(lp559
NaNaNaNaNaNaNaNaNaNaNaNaNaNaNaNaNaNaNaNaa(lp560
NaNaNaNaNaNaNaNaNaNaNaNaNaNaNaNaNaNaNaNaa(lp561
NaNaNaNaNaNaNaNaNaNaNaNaNaNaNaNaNaNaNaNaa(lp562
NaNaNaNaNaNaNaNaNaNaNaNaNaNaNaNaNaNaNaNaa(lp563
NaNaNaNaNaNaNaNaNaNaNaNaNaNaNaNaNaNaNaNaa(lp564
NaNaNaNaNaNaNaNaNaNaNaNaNaNaNaNaNaNaNaNaa(lp565
NaNaNaNaNaNaNaNaNaNaNaNaNaNaNaNaNaNaNaNaa(lp566
NaNaNaNaNaNaNaNaNaNaNaNaNaNaNaNaNaNaNaNaa(lp567
NaNaNaNaNaNaNaNaNaNaNaNaNaNaNaNaNaNaNaNaa(lp568
NaNaNaNaNaNaNaNaNaNaNaNaNaNaNaNaNaNaNaNaa(lp569
NaNaNaNaNaNaNaNaNaNaNaNaNaNaNaNaNaNaNaNaa(lp570
NaNaNaNaNaNaNaNaNaNaNaNaNaNaNaNaNaNaNaNaa(lp571
NaNaNaNaNaNaNaNaNaNaNaNaNaNaNaNaNaNaNaNaa(lp572
NaNaNaNaNaNaNaNaNaNaNaNaNaNaNaNaNaNaNaNaaa(lp573
(lp574
NaNaNaNaNaNag193
(c__main__
Normal_block
p575
g195
Ntp576
Rp577
aNaNaNaNaNaNaNaNaNaNaNaNaNaa(lp578
NaNaNaNaNaNaNaNaNaNaNaNaNaNaNaNaNaNaNaNaa(lp579
NaNaNaNaNaNaNaNaNaNaNaNaNaNaNaNaNaNaNaNaa(lp580
NaNaNaNaNaNaNaNaNaNaNaNaNaNaNaNaNaNaNaNaa(lp581
NaNaNaNaNaNaNaNaNaNaNaNaNaNaNaNaNaNaNaNaa(lp582
NaNaNaNaNaNaNaNaNaNaNaNaNaNaNaNaNaNaNaNaa(lp583
NaNaNaNaNaNaNaNaNaNaNaNaNaNaNaNaNaNaNaNaa(lp584
NaNaNaNaNaNaNaNaNaNaNaNaNaNaNaNaNaNaNaNaa(lp585
NaNaNaNaNaNaNaNaNaNaNaNaNaNaNaNaNaNaNaNaa(lp586
NaNaNaNaNaNaNaNaNaNaNaNaNaNaNaNaNaNaNaNaa(lp587
NaNaNaNaNaNaNaNaNaNaNaNaNaNaNaNaNaNaNaNaa(lp588
NaNaNaNaNaNaNaNaNaNaNaNaNaNaNaNaNaNaNaNaa(lp589
NaNaNaNaNaNaNaNaNaNaNaNaNaNaNaNaNaNaNaNaa(lp590
NaNaNaNaNaNaNaNaNaNaNaNaNaNaNaNaNaNaNaNaa(lp591
NaNaNaNaNaNaNaNaNaNaNaNaNaNaNaNaNaNaNaNaa(lp592
NaNaNaNaNaNaNaNaNaNaNaNaNaNaNaNaNaNaNaNaa(lp593
NaNaNaNaNaNaNaNaNaNaNaNaNaNaNaNaNaNaNaNaa(lp594
NaNaNaNaNaNaNaNaNaNaNaNaNaNaNaNaNaNaNaNaa(lp595
NaNaNaNaNaNaNaNaNaNaNaNaNaNaNaNaNaNaNaNaa(lp596
NaNaNaNaNaNaNaNaNaNaNaNaNaNaNaNaNaNaNaNaaa(lp597
(lp598
NaNaNaNaNaNaNaNaNaNaNaNaNaNaNaNaNaNaNaNaa(lp599
NaNaNaNaNaNaNaNaNaNaNaNaNaNaNaNaNaNaNaNaa(lp600
NaNaNaNaNaNaNaNaNaNaNaNaNaNaNaNaNaNaNaNaa(lp601
NaNaNaNaNaNaNaNaNaNaNaNaNaNaNaNaNaNaNaNaa(lp602
NaNaNaNaNaNaNaNaNaNaNaNaNaNaNaNaNaNaNaNaa(lp603
NaNaNaNaNaNaNaNaNaNaNaNaNaNaNaNaNaNaNaNaa(lp604
NaNaNaNaNaNaNaNaNaNaNaNaNaNaNaNaNaNaNaNaa(lp605
NaNaNaNaNaNaNaNaNaNaNaNaNaNaNaNaNaNaNaNaa(lp606
NaNaNaNaNaNaNaNaNaNaNaNaNaNaNaNaNaNaNaNaa(lp607
NaNaNaNaNaNaNaNaNaNaNaNaNaNaNaNaNaNaNaNaa(lp608
NaNaNaNaNaNaNaNaNaNaNaNaNaNaNaNaNaNaNaNaa(lp609
NaNaNaNaNaNaNaNaNaNaNaNaNaNaNaNaNaNaNaNaa(lp610
NaNaNaNaNaNaNaNaNaNaNaNaNaNaNaNaNaNaNaNaa(lp611
NaNaNaNaNaNaNaNaNaNaNaNaNaNaNaNaNaNaNaNaa(lp612
NaNaNaNaNaNaNaNaNaNaNaNaNaNaNaNaNaNaNaNaa(lp613
NaNaNaNaNaNaNaNaNaNaNaNaNaNaNaNaNaNaNaNaa(lp614
NaNaNaNaNaNaNaNaNaNaNaNaNaNaNaNaNaNaNaNaa(lp615
NaNaNaNaNaNaNaNaNaNaNaNaNaNaNaNaNaNaNaNaa(lp616
NaNaNaNaNaNaNaNaNaNaNaNaNaNaNaNaNaNaNaNaa(lp617
NaNaNaNaNaNaNaNaNaNaNaNaNaNaNaNaNaNaNaNaaa(lp618
(lp619
NaNaNaNaNaNaNaNaNaNaNaNaNaNaNaNaNaNaNaNaa(lp620
NaNaNaNaNaNaNaNaNaNaNaNaNaNaNaNaNaNaNaNaa(lp621
NaNaNaNaNaNaNaNaNaNaNaNaNaNaNaNaNaNaNaNaa(lp622
NaNaNaNaNaNaNaNaNaNaNaNaNaNaNaNaNaNaNaNaa(lp623
NaNaNaNaNaNaNaNaNaNaNaNaNaNaNaNaNaNaNaNaa(lp624
NaNaNaNaNaNaNaNaNaNaNaNaNaNaNaNaNaNaNaNaa(lp625
NaNaNaNaNaNaNaNaNaNaNaNaNaNaNaNaNaNaNaNaa(lp626
NaNaNaNaNaNaNaNaNaNaNaNaNaNaNaNaNaNaNaNaa(lp627
NaNaNaNaNaNaNaNaNaNaNaNaNaNaNaNaNaNaNaNaa(lp628
NaNaNaNaNaNaNaNaNaNaNaNaNaNaNaNaNaNaNaNaa(lp629
NaNaNaNaNaNaNaNaNaNaNaNaNaNaNaNaNaNaNaNaa(lp630
NaNaNaNaNaNaNaNaNaNaNaNaNaNaNaNaNaNaNaNaa(lp631
NaNaNaNaNaNaNaNaNaNaNaNaNaNaNaNaNaNaNaNaa(lp632
NaNaNaNaNaNaNaNaNaNaNaNaNaNaNaNaNaNaNaNaa(lp633
NaNaNaNaNaNaNaNaNaNaNaNaNaNaNaNaNaNaNaNaa(lp634
NaNaNaNaNaNaNaNaNaNaNaNaNaNaNaNaNaNaNaNaa(lp635
NaNaNaNaNaNaNaNaNaNaNaNaNaNaNaNaNaNaNaNaa(lp636
NaNaNaNaNaNaNaNaNaNaNaNaNaNaNaNaNaNaNaNaa(lp637
NaNaNaNaNaNaNaNaNaNaNaNaNaNaNaNaNaNaNaNaa(lp638
NaNaNaNaNaNaNaNaNaNaNaNaNaNaNaNaNaNaNaNaaa(lp639
(lp640
NaNaNaNaNaNaNaNaNaNaNaNaNaNaNaNaNaNaNaNaa(lp641
NaNaNaNaNaNaNaNaNaNaNaNaNaNaNaNaNaNaNaNaa(lp642
NaNaNaNaNaNaNaNaNaNaNaNaNaNaNaNaNaNaNaNaa(lp643
NaNaNaNaNaNaNaNaNaNaNaNaNaNaNaNaNaNaNaNaa(lp644
NaNaNaNaNaNaNaNaNaNaNaNaNaNaNaNaNaNaNaNaa(lp645
NaNaNaNaNaNaNaNaNaNaNaNaNaNaNaNaNaNaNaNaa(lp646
NaNaNaNaNaNaNaNaNaNaNaNaNaNaNaNaNaNaNaNaa(lp647
NaNaNaNaNaNaNaNaNaNaNaNaNaNaNaNaNaNaNaNaa(lp648
NaNaNaNaNaNaNaNaNaNaNaNaNaNaNaNaNaNaNaNaa(lp649
NaNaNaNaNaNaNaNaNaNaNaNaNaNaNaNaNaNaNaNaa(lp650
NaNaNaNaNaNaNaNaNaNaNaNaNaNaNaNaNaNaNaNaa(lp651
NaNaNaNaNaNaNaNaNaNaNaNaNaNaNaNaNaNaNaNaa(lp652
NaNaNaNaNaNaNaNaNaNaNaNaNaNaNaNaNaNaNaNaa(lp653
NaNaNaNaNaNaNaNaNaNaNaNaNaNaNaNaNaNaNaNaa(lp654
NaNaNaNaNaNaNaNaNaNaNaNaNaNaNaNaNaNaNaNaa(lp655
NaNaNaNaNaNaNaNaNaNaNaNaNaNaNaNaNaNaNaNaa(lp656
NaNaNaNaNaNaNaNaNaNaNaNaNaNaNaNaNaNaNaNaa(lp657
NaNaNaNaNaNaNaNaNaNaNaNaNaNaNaNaNaNaNaNaa(lp658
NaNaNaNaNaNaNaNaNaNaNaNaNaNaNaNaNaNaNaNaa(lp659
NaNaNaNaNaNaNaNaNaNaNaNaNaNaNaNaNaNaNaNaaa(lp660
(lp661
NaNaNaNaNaNaNaNaNaNaNaNaNaNaNaNaNaNaNaNaa(lp662
NaNaNaNaNaNaNaNaNaNaNaNaNaNaNaNaNaNaNaNaa(lp663
NaNaNaNaNaNaNaNaNaNaNaNaNaNaNaNaNaNaNaNaa(lp664
NaNaNaNaNaNaNaNaNaNaNaNaNaNaNaNaNaNaNaNaa(lp665
NaNaNaNaNaNaNaNaNaNaNaNaNaNaNaNaNaNaNaNaa(lp666
NaNaNaNaNaNaNaNaNaNaNaNaNaNaNaNaNaNaNaNaa(lp667
NaNaNaNaNaNaNaNaNaNaNaNaNaNaNaNaNaNaNaNaa(lp668
NaNaNaNaNaNaNaNaNaNaNaNaNaNaNaNaNaNaNaNaa(lp669
NaNaNaNaNaNaNaNaNaNaNaNaNaNaNaNaNaNaNaNaa(lp670
NaNaNaNaNaNaNaNaNaNaNaNaNaNaNaNaNaNaNaNaa(lp671
NaNaNaNaNaNaNaNaNaNaNaNaNaNaNaNaNaNaNaNaa(lp672
NaNaNaNaNaNaNaNaNaNaNaNaNaNaNaNaNaNaNaNaa(lp673
NaNaNaNaNaNaNaNaNaNaNaNaNaNaNaNaNaNaNaNaa(lp674
NaNaNaNaNaNaNaNaNaNaNaNaNaNaNaNaNaNaNaNaa(lp675
NaNaNaNaNaNaNaNaNaNaNaNaNaNaNaNaNaNaNaNaa(lp676
NaNaNaNaNaNaNaNaNaNaNaNaNaNaNaNaNaNaNaNaa(lp677
NaNaNaNaNaNaNaNaNaNaNaNaNaNaNaNaNaNaNaNaa(lp678
NaNaNaNaNaNaNaNaNaNaNaNaNaNaNaNaNaNaNaNaa(lp679
NaNaNaNaNaNaNaNaNaNaNaNaNaNaNaNaNaNaNaNaa(lp680
NaNaNaNaNaNaNaNaNaNaNaNaNaNaNaNaNaNaNaNaaa(lp681
(lp682
NaNaNaNaNaNaNaNaNaNaNaNaNaNaNaNaNaNaNaNaa(lp683
NaNaNaNaNaNaNaNaNaNaNaNaNaNaNaNaNaNaNaNaa(lp684
NaNaNaNaNaNaNaNaNaNaNaNaNaNaNaNaNaNaNaNaa(lp685
NaNaNaNaNaNaNaNaNaNaNaNaNaNaNaNaNaNaNaNaa(lp686
NaNaNaNaNaNaNaNaNaNaNaNaNaNaNaNaNaNaNaNaa(lp687
NaNaNaNaNaNaNaNaNaNaNaNaNaNaNaNaNaNaNaNaa(lp688
NaNaNaNaNaNaNaNaNaNaNaNaNaNaNaNaNaNaNaNaa(lp689
NaNaNaNaNaNaNaNaNaNaNaNaNaNaNaNaNaNaNaNaa(lp690
NaNaNaNaNaNaNaNaNaNaNaNaNaNaNaNaNaNaNaNaa(lp691
NaNaNaNaNaNaNaNaNaNaNaNaNaNaNaNaNaNaNaNaa(lp692
NaNaNaNaNaNaNaNaNaNaNaNaNaNaNaNaNaNaNaNaa(lp693
NaNaNaNaNaNaNaNaNaNaNaNaNaNaNaNaNaNaNaNaa(lp694
NaNaNaNaNaNaNaNaNaNaNaNaNaNaNaNaNaNaNaNaa(lp695
NaNaNaNaNaNaNaNaNaNaNaNaNaNaNaNaNaNaNaNaa(lp696
NaNaNaNaNaNaNaNaNaNaNaNaNaNaNaNaNaNaNaNaa(lp697
NaNaNaNaNaNaNaNaNaNaNaNaNaNaNaNaNaNaNaNaa(lp698
NaNaNaNaNaNaNaNaNaNaNaNaNaNaNaNaNaNaNaNaa(lp699
NaNaNaNaNaNaNaNaNaNaNaNaNaNaNaNaNaNaNaNaa(lp700
NaNaNaNaNaNaNaNaNaNaNaNaNaNaNaNaNaNaNaNaa(lp701
NaNaNaNaNaNaNaNaNaNaNaNaNaNaNaNaNaNaNaNaaa(lp702
(lp703
NaNaNaNaNaNaNaNaNaNaNaNaNaNaNaNaNaNaNaNaa(lp704
NaNaNaNaNaNaNaNaNaNaNaNaNaNaNaNaNaNaNaNaa(lp705
NaNaNaNaNaNaNaNaNaNaNaNaNaNaNaNaNaNaNaNaa(lp706
NaNaNaNaNaNaNaNaNaNaNaNaNaNaNaNaNaNaNaNaa(lp707
NaNaNaNaNaNaNaNaNaNaNaNaNaNaNaNaNaNaNaNaa(lp708
NaNaNaNaNaNaNaNaNaNaNaNaNaNaNaNaNaNaNaNaa(lp709
NaNaNaNaNaNaNaNaNaNaNaNaNaNaNaNaNaNaNaNaa(lp710
NaNaNaNaNaNaNaNaNaNaNaNaNaNaNaNaNaNaNaNaa(lp711
NaNaNaNaNaNaNaNaNaNaNaNaNaNaNaNaNaNaNaNaa(lp712
NaNaNaNaNaNaNaNaNaNaNaNaNaNaNaNaNaNaNaNaa(lp713
NaNaNaNaNaNaNaNaNaNaNaNaNaNaNaNaNaNaNaNaa(lp714
NaNaNaNaNaNaNaNaNaNaNaNaNaNaNaNaNaNaNaNaa(lp715
NaNaNaNaNaNaNaNaNaNaNaNaNaNaNaNaNaNaNaNaa(lp716
NaNaNaNaNaNaNaNaNaNaNaNaNaNaNaNaNaNaNaNaa(lp717
NaNaNaNaNaNaNaNaNaNaNaNaNaNaNaNaNaNaNaNaa(lp718
NaNaNaNaNaNaNaNaNaNaNaNaNaNaNaNaNaNaNaNaa(lp719
NaNaNaNaNaNaNaNaNaNaNaNaNaNaNaNaNaNaNaNaa(lp720
NaNaNaNaNaNaNaNaNaNaNaNaNaNaNaNaNaNaNaNaa(lp721
NaNaNaNaNaNaNaNaNaNaNaNaNaNaNaNaNaNaNaNaa(lp722
NaNaNaNaNaNaNaNaNaNaNaNaNaNaNaNaNaNaNaNaaa(lp723
(lp724
NaNaNaNaNaNaNaNaNaNaNaNaNaNaNaNaNaNaNaNaa(lp725
NaNaNaNaNaNaNaNaNaNaNaNaNaNaNaNaNaNaNaNaa(lp726
NaNaNaNaNaNaNaNaNaNaNaNaNaNaNaNaNaNaNaNaa(lp727
NaNaNaNaNaNaNaNaNaNaNaNaNaNaNaNaNaNaNaNaa(lp728
NaNaNaNaNaNaNaNaNaNaNaNaNaNaNaNaNaNaNaNaa(lp729
NaNaNaNaNaNaNaNaNaNaNaNaNaNaNaNaNaNaNaNaa(lp730
NaNaNaNaNaNaNaNaNaNaNaNaNaNaNaNaNaNaNaNaa(lp731
NaNaNaNaNaNaNaNaNaNaNaNaNaNaNaNaNaNaNaNaa(lp732
NaNaNaNaNaNaNaNaNaNaNaNaNaNaNaNaNaNaNaNaa(lp733
NaNaNaNaNaNaNaNaNaNaNaNaNaNaNaNaNaNaNaNaa(lp734
NaNaNaNaNaNaNaNaNaNaNaNaNaNaNaNaNaNaNaNaa(lp735
NaNaNaNaNaNaNaNaNaNaNaNaNaNaNaNaNaNaNaNaa(lp736
NaNaNaNaNaNaNaNaNaNaNaNaNaNaNaNaNaNaNaNaa(lp737
NaNaNaNaNaNaNaNaNaNaNaNaNaNaNaNaNaNaNaNaa(lp738
NaNaNaNaNaNaNaNaNaNaNaNaNaNaNaNaNaNaNaNaa(lp739
NaNaNaNaNaNaNaNaNaNaNaNaNaNaNaNaNaNaNaNaa(lp740
NaNaNaNaNaNaNaNaNaNaNaNaNaNaNaNaNaNaNaNaa(lp741
NaNaNaNaNaNaNaNaNaNaNaNaNaNaNaNaNaNaNaNaa(lp742
NaNaNaNaNaNaNaNaNaNaNaNaNaNaNaNaNaNaNaNaa(lp743
NaNaNaNaNaNaNaNaNaNaNaNaNaNaNaNaNaNaNaNaaa(lp744
(lp745
NaNaNaNaNaNaNaNaNaNaNaNaNaNaNaNaNaNaNaNaa(lp746
NaNaNaNaNaNaNaNaNaNaNaNaNaNaNaNaNaNaNaNaa(lp747
NaNaNaNaNaNaNaNaNaNaNaNaNaNaNaNaNaNaNaNaa(lp748
NaNaNaNaNaNaNaNaNaNaNaNaNaNaNaNaNaNaNaNaa(lp749
NaNaNaNaNaNaNaNaNaNaNaNaNaNaNaNaNaNaNaNaa(lp750
NaNaNaNaNaNaNaNaNaNaNaNaNaNaNaNaNaNaNaNaa(lp751
NaNaNaNaNaNaNaNaNaNaNaNaNaNaNaNaNaNaNaNaa(lp752
NaNaNaNaNaNaNaNaNaNaNaNaNaNaNaNaNaNaNaNaa(lp753
NaNaNaNaNaNaNaNaNaNaNaNaNaNaNaNaNaNaNaNaa(lp754
NaNaNaNaNaNaNaNaNaNaNaNaNaNaNaNaNaNaNaNaa(lp755
NaNaNaNaNaNaNaNaNaNaNaNaNaNaNaNaNaNaNaNaa(lp756
NaNaNaNaNaNaNaNaNaNaNaNaNaNaNaNaNaNaNaNaa(lp757
NaNaNaNaNaNaNaNaNaNaNaNaNaNaNaNaNaNaNaNaa(lp758
NaNaNaNaNaNaNaNaNaNaNaNaNaNaNaNaNaNaNaNaa(lp759
NaNaNaNaNaNaNaNaNaNaNaNaNaNaNaNaNaNaNaNaa(lp760
NaNaNaNaNaNaNaNaNaNaNaNaNaNaNaNaNaNaNaNaa(lp761
NaNaNaNaNaNaNaNaNaNaNaNaNaNaNaNaNaNaNaNaa(lp762
NaNaNaNaNaNaNaNaNaNaNaNaNaNaNaNaNaNaNaNaa(lp763
NaNaNaNaNaNaNaNaNaNaNaNaNaNaNaNaNaNaNaNaa(lp764
NaNaNaNaNaNaNaNaNaNaNaNaNaNaNaNaNaNaNaNaaa(lp765
(lp766
NaNaNaNaNaNaNaNaNaNaNaNaNaNaNaNaNaNaNaNaa(lp767
NaNaNaNaNaNaNaNaNaNaNaNaNaNaNaNaNaNaNaNaa(lp768
NaNaNaNaNaNaNaNaNaNaNaNaNaNaNaNaNaNaNaNaa(lp769
NaNaNaNaNaNaNaNaNaNaNaNaNaNaNaNaNaNaNaNaa(lp770
NaNaNaNaNaNaNaNaNaNaNaNaNaNaNaNaNaNaNaNaa(lp771
NaNaNaNaNaNaNaNaNaNaNaNaNaNaNaNaNaNaNaNaa(lp772
NaNaNaNaNaNaNaNaNaNaNaNaNaNaNaNaNaNaNaNaa(lp773
NaNaNaNaNaNaNaNaNaNaNaNaNaNaNaNaNaNaNaNaa(lp774
NaNaNaNaNaNaNaNaNaNaNaNaNaNaNaNaNaNaNaNaa(lp775
NaNaNaNaNaNaNaNaNaNaNaNaNaNaNaNaNaNaNaNaa(lp776
NaNaNaNaNaNaNaNaNaNaNaNaNaNaNaNaNaNaNaNaa(lp777
NaNaNaNaNaNaNaNaNaNaNaNaNaNaNaNaNaNaNaNaa(lp778
NaNaNaNaNaNaNaNaNaNaNaNaNaNaNaNaNaNaNaNaa(lp779
NaNaNaNaNaNaNaNaNaNaNaNaNaNaNaNaNaNaNaNaa(lp780
NaNaNaNaNaNaNaNaNaNaNaNaNaNaNaNaNaNaNaNaa(lp781
NaNaNaNaNaNaNaNaNaNaNaNaNaNaNaNaNaNaNaNaa(lp782
NaNaNaNaNaNaNaNaNaNaNaNaNaNaNaNaNaNaNaNaa(lp783
NaNaNaNaNaNaNaNaNaNaNaNaNaNaNaNaNaNaNaNaa(lp784
NaNaNaNaNaNaNaNaNaNaNaNaNaNaNaNaNaNaNaNaa(lp785
NaNaNaNaNaNaNaNaNaNaNaNaNaNaNaNaNaNaNaNaaa.