(lp0
(lp1
(lp2
NaNaNaNaNaNaNaNaNaNaNaNaNaNaNaNaNaNaNaNaa(lp3
NaNaNaNaNaNaNaNaNaNaNaNaNaNaNaNaNaNaNaNaa(lp4
NaNaNaNaNaNaNaNaNaNaNaNaNaNaNaNaNaNaNaNaa(lp5
NaNaNaNaNaNaNaNaNaNaNaNaNaNaNaNaNaNaNaNaa(lp6
NaNaNaNaNaNaNaNaNaNaNaNaNaNaNaNaNaNaNaNaa(lp7
NaNaNaNaNaNaNaNaNaNaNaNaNaNaNaNaNaNaNaNaa(lp8
NaNaNaNaNaNaNaNaNaNaNaNaNaNaNaNaNaNaNaNaa(lp9
NaNaNaNaNaNaNaNaNaNaNaNaNaNaNaNaNaNaNaNaa(lp10
NaNaNaNaNaNaNaNaNaNaNaNaNaNaNaNaNaNaNaNaa(lp11
NaNaNaNaNaNaNaNaNaNaNaNaNaNaNaNaNaNaNaNaa(lp12
NaNaNaNaNaNaNaNaNaNaNaNaNaNaNaNaNaNaNaNaa(lp13
NaNaNaNaNaNaNaNaNaNaNaNaNaNaNaNaNaNaNaNaa(lp14
NaNaNaNaNaNaNaNaNaNaNaNaNaNaNaNaNaNaNaNaa(lp15
NaNaNaNaNaNaNaNaNaNaNaNaNaNaNaNaNaNaNaNaa(lp16
NaNaNaNaNaNaNaNaNaNaNaNaNaNaNaNaNaNaNaNaa(lp17
NaNaNaNaNaNaNaNaNaNaNaNaNaNaNaNaNaNaNaNaa(lp18
NaNaNaNaNaNaNaNaNaNaNaNaNaNaNaNaNaNaNaNaa(lp19
NaNaNaNaNaNaNaNaNaNaNaNaNaNaNaNaNaNaNaNaa(lp20
NaNaNaNaNaNaNaNaNaNaNaNaNaNaNaNaNaNaNaNaa(lp21
NaNaNaNaNaNaNaNaNaNaNaNaNaNaNaNaNaNaNaNaaa(lp22
(lp23
NaNaNaNaNaNaNaNaNaNaNaNaNaNaNaNaNaNaNaNaa(lp24
NaNaNaNaNaNaNaNaNaNaNaNaNaNaNaNaNaNaNaNaa(lp25
NaNaNaNaNaNaNaNaNaNaNaNaNaNaNaNaNaNaNaNaa(lp26
NaNaNaNaNaNaNaNaNaNaNaNaNaNaNaNaNaNaNaNaa(lp27
NaNaNaNaNaNaNaNaNaNaNaNaNaNaNaNaNaNaNaNaa(lp28
NaNaNaNaNaNaNaNaNaNaNaNaNaNaNaNaNaNaNaNaa(lp29
NaNaNaNaNaNaNaNaNaNaNaNaNaNaNaNaNaNaNaNaa(lp30
NaNaNaNaNaNaNaNaNaNaNaNaNaNaNaNaNaNaNaNaa(lp31
NaNaNaNaNaNaNaNaNaNaNaNaNaNaNaNaNaNaNaNaa(lp32
NaNaNaNaNaNaNaNaNaNaNaNaNaNaNaNaNaNaNaNaa(lp33
NaNaNaNaNaNaNaNaNaNaNaNaNaNaNaNaNaNaNaNaa(lp34
NaNaNaNaNaNaNaNaNaNaNaNaNaNaNaNaNaNaNaNaa(lp35
NaNaNaNaNaNaNaNaNaNaNaNaNaNaNaNaNaNaNaNaa(lp36
NaNaNaNaNaNaNaNaNaNaNaNaNaNaNaNaNaNaNaNaa(lp37
NaNaNaNaNaNaNaNaNaNaNaNaNaNaNaNaNaNaNaNaa(lp38
NaNaNaNaNaNaNaNaNaNaNaNaNaNaNaNaNaNaNaNaa(lp39
NaNaNaNaNaNaNaNaNaNaNaNaNaNaNaNaNaNaNaNaa(lp40
NaNaNaNaNaNaNaNaNaNaNaNaNaNaNaNaNaNaNaNaa(lp41
NaNaNaNaNaNaNaNaNaNaNaNaNaNaNaNaNaNaNaNaa(lp42
NaNaNaNaNaNaNaNaNaNaNaNaNaNaNaNaNaNaNaNaaa(lp43
(lp44
NaNaNaNaNaNaNaNaNaNaNaNaNaNaNaNaNaNaNaNaa(lp45
NaNaNaNaNaNaNaNaNaNaNaNaNaNaNaNaNaNaNaNaa(lp46
NaNaNaNaNaNaNaNaNaNaNaNaNaNaNaNaNaNaNaNaa(lp47
NaNaNaNaNaNaNaNaNaNaNaNaNaNaNaNaNaNaNaNaa(lp48
NaNaNaNaNaNaNaNaNaNaNaNaNaNaNaNaNaNaNaNaa(lp49
NaNaNaNaNaNaNaNaNaNaNaNaNaNaNaNaNaNaNaNaa(lp50
NaNaNaNaNaNaNaNaNaNaNaNaNaNaNaNaNaNaNaNaa(lp51
NaNaNaNaNaNaNaNaNaNaNaNaNaNaNaNaNaNaNaNaa(lp52
NaNaNaNaNaNaNaNaNaNaNaNaNaNaNaNaNaNaNaNaa(lp53
NaNaNaNaNaNaNaNaNaNaNaNaNaNaNaNaNaNaNaNaa(lp54
NaNaNaNaNaNaNaNaNaNaNaNaNaNaNaNaNaNaNaNaa(lp55
NaNaNaNaNaNaNaNaNaNaNaNaNaNaNaNaNaNaNaNaa(lp56
NaNaNaNaNaNaNaNaNaNaNaNaNaNaNaNaNaNaNaNaa(lp57
NaNaNaNaNaNaNaNaNaNaNaNaNaNaNaNaNaNaNaNaa(lp58
NaNaNaNaNaNaNaNaNaNaNaNaNaNaNaNaNaNaNaNaa(lp59
NaNaNaNaNaNaNaNaNaNaNaNaNaNaNaNaNaNaNaNaa(lp60
NaNaNaNaNaNaNaNaNaNaNaNaNaNaNaNaNaNaNaNaa(lp61
NaNaNaNaNaNaNaNaNaNaNaNaNaNaNaNaNaNaNaNaa(lp62
NaNaNaNaNaNaNaNaNaNaNaNaNaNaNaNaNaNaNaNaa(lp63
NaNaNaNaNaNaNaNaNaNaNaNaNaNaNaNaNaNaNaNaaa(lp64
(lp65
NaNaNaNaNaNaNaNaNaNaNaNaNaNaNaNaNaNaNaNaa(lp66
NaNaNaNaNaNaNaNaNaNaNaNaNaNaNaNaNaNaNaNaa(lp67
NaNaNaNaNaNaNaNaNaNaNaNaNaNaNaNaNaNaNaNaa(lp68
NaNaNaNaNaNaNaNaNaNaNaNaNaNaNaNaNaNaNaNaa(lp69
NaNaNaNaNaNaNaNaNaNaNaNaNaNaNaNaNaNaNaNaa(lp70
NaNaNaNaNaNaNaNaNaNaNaNaNaNaNaNaNaNaNaNaa(lp71
NaNaNaNaNaNaNaNaNaNaNaNaNaNaNaNaNaNaNaNaa(lp72
NaNaNaNaNaNaNaNaNaNaNaNaNaNaNaNaNaNaNaNaa(lp73
NaNaNaNaNaNaNaNaNaNaNaNaNaNaNaNaNaNaNaNaa(lp74
NaNaNaNaNaNaNaNaNaNaNaNaNaNaNaNaNaNaNaNaa(lp75
NaNaNaNaNaNaNaNaNaNaNaNaNaNaNaNaNaNaNaNaa(lp76
NaNaNaNaNaNaNaNaNaNaNaNaNaNaNaNaNaNaNaNaa(lp77
NaNaNaNaNaNaNaNaNaNaNaNaNaNaNaNaNaNaNaNaa(lp78
NaNaNaNaNaNaNaNaNaNaNaNaNaNaNaNaNaNaNaNaa(lp79
NaNaNaNaNaNaNaNaNaNaNaNaNaNaNaNaNaNaNaNaa(lp80
NaNaNaNaNaNaNaNaNaNaNaNaNaNaNaNaNaNaNaNaa(lp81
NaNaNaNaNaNaNaNaNaNaNaNaNaNaNaNaNaNaNaNaa(lp82
NaNaNaNaNaNaNaNaNaNaNaNaNaNaNaNaNaNaNaNaa(lp83
NaNaNaNaNaNaNaNaNaNaNaNaNaNaNaNaNaNaNaNaa(lp84
NaNaNaNaNaNaNaNaNaNaNaNaNaNaNaNaNaNaNaNaaa(lp85
(lp86
NaNaNaNaNaNaNaNaNaNaNaNaNaNaNaNaNaNaNaNaa(lp87
NaNaNaNaNaNaNaNaNaNaNaNaNaNaNaNaNaNaNaNaa(lp88
NaNaNaNaNaNaNaNaNaNaNaNaNaNaNaNaNaNaNaNaa(lp89
NaNaNaNaNaNaNaNaNaNaNaNaNaNaNaNaNaNaNaNaa(lp90
NaNaNaNaNaNaNaNaNaNaNaNaNaNaNaNaNaNaNaNaa(lp91
NaNaNaNaNaNaNaNaNaNaNaNaNaNaNaNaNaNaNaNaa(lp92
NaNaNaNaNaNaNaNaNaNaNaNaNaNaNaNaNaNaNaNaa(lp93
NaNaNaNaNaNaNaNaNaNaNaNaNaNaNaNaNaNaNaNaa(lp94
NaNaNaNaNaNaNaNaNaNaNaNaNaNaNaNaNaNaNaNaa(lp95
NaNaNaNaNaNaNaNaNaNaNaNaNaNaNaNaNaNaNaNaa(lp96
NaNaNaNaNaNaNaNaNaNaNaNaNaNaNaNaNaNaNaNaa(lp97
NaNaNaNaNaNaNaNaNaNaNaNaNaNaNaNaNaNaNaNaa(lp98
NaNaNaNaNaNaNaNaNaNaNaNaNaNaNaNaNaNaNaNaa(lp99
NaNaNaNaNaNaNaNaNaNaNaNaNaNaNaNaNaNaNaNaa(lp100
NaNaNaNaNaNaNaNaNaNaNaNaNaNaNaNaNaNaNaNaa(lp101
NaNaNaNaNaNaNaNaNaNaNaNaNaNaNaNaNaNaNaNaa(lp102
NaNaNaNaNaNaNaNaNaNaNaNaNaNaNaNaNaNaNaNaa(lp103
NaNaNaNaNaNaNaNaNaNaNaNaNaNaNaNaNaNaNaNaa(lp104
NaNaNaNaNaNaNaNaNaNaNaNaNaNaNaNaNaNaNaNaa(lp105
NaNaNaNaNaNaNaNaNaNaNaNaNaNaNaNaNaNaNaNaaa(lp106
(lp107
NaNaNaNaNaNaNaNaNaNaNaNaNaNaNaNaNaNaNaNaa(lp108
NaNaNaNaNaNaNaNaNaNaNaNaNaNaNaNaNaNaNaNaa(lp109
NaNaNaNaNaNaNaNaNaNaNaNaNaNaNaNaNaNaNaNaa(lp110
NaNaNaNaNaNaNaNaNaNaNaNaNaNaNaNaNaNaNaNaa(lp111
NaNaNaNaNaNaNaNaNaNaNaNaNaNaNaNaNaNaNaNaa(lp112
NaNaNaNaNaNaNaNaNaNaNaNaNaNaNaNaNaNaNaNaa(lp113
NaNaNaNaNaNaNaNaNaNaNaNaNaNaNaNaNaNaNaNaa(lp114
NaNaNaNaNaNaNaNaNaNaNaNaNaNaNaNaNaNaNaNaa(lp115
NaNaNaNaNaNaNaNaNaNaNaNaNaNaNaNaNaNaNaNaa(lp116
NaNaNaNaNaNaNaNaNaNaNaNaNaNaNaNaNaNaNaNaa(lp117
NaNaNaNaNaNaNaNaNaNaNaNaNaNaNaNaNaNaNaNaa(lp118
NaNaNaNaNaNaNaNaNaNaNaNaNaNaNaNaNaNaNaNaa(lp119
NaNaNaNaNaNaNaNaNaNaNaNaNaNaNaNaNaNaNaNaa(lp120
NaNaNaNaNaNaNaNaNaNaNaNaNaNaNaNaNaNaNaNaa(lp121
NaNaNaNaNaNaNaNaNaNaNaNaNaNaNaNaNaNaNaNaa(lp122
NaNaNaNaNaNaNaNaNaNaNaNaNaNaNaNaNaNaNaNaa(lp123
NaNaNaNaNaNaNaNaNaNaNaNaNaNaNaNaNaNaNaNaa(lp124
NaNaNaNaNaNaNaNaNaNaNaNaNaNaNaNaNaNaNaNaa(lp125
NaNaNaNaNaNaNaNaNaNaNaNaNaNaNaNaNaNaNaNaa(lp126
NaNaNaNaNaNaNaNaNaNaNaNaNaNaNaNaNaNaNaNaaa(lp127
(lp128
NaNaNaNaNaNaNaNaNaNaNaNaNaNaNaNaNaNaNaNaa(lp129
NaNaNaNaNaNaNaNaNaNaNaNaNaNaNaNaNaNaNaNaa(lp130
NaNaNaNaNaNaNaNaNaNaNaNaNaNaNaNaNaNaNaNaa(lp131
NaNaNaNaNaNaNaNaNaNaNaNaNaNaNaNaNaNaNaNaa(lp132
NaNaNaNaNaNaNaNaNaNaNaNaNaNaNaNaNaNaNaNaa(lp133
NaNaNaNaNaNaNaNaNaNaNaNaNaNaNaNaNaNaNaNaa(lp134
NaNaNaNaNaNaNaNaNaNaNaNaNaNaNaNaNaNaNaNaa(lp135
NaNaNaNaNaNaNaNaNaNaNaNaNaNaNaNaNaNaNaNaa(lp136
NaNaNaNaNaNaNaNaNaNaNaNaNaNaNaNaNaNaNaNaa(lp137
NaNaNaNaNaNaNaNaNaNaNaNaNaNaNaNaNaNaNaNaa(lp138
NaNaNaNaNaNaNaNaNaNaNaNaNaNaNaNaNaNaNaNaa(lp139
NaNaNaNaNaNaNaNaNaNaNaNaNaNaNaNaNaNaNaNaa(lp140
NaNaNaNaNaNaNaNaNaNaNaNaNaNaNaNaNaNaNaNaa(lp141
NaNaNaNaNaNaNaNaNaNaNaNaNaNaNaNaNaNaNaNaa(lp142
NaNaNaNaNaNaNaNaNaNaNaNaNaNaNaNaNaNaNaNaa(lp143
NaNaNaNaNaNaNaNaNaNaNaNaNaNaNaNaNaNaNaNaa(lp144
NaNaNaNaNaNaNaNaNaNaNaNaNaNaNaNaNaNaNaNaa(lp145
NaNaNaNaNaNaNaNaNaNaNaNaNaNaNaNaNaNaNaNaa(lp146
NaNaNaNaNaNaNaNaNaNaNaNaNaNaNaNaNaNaNaNaa(lp147
NaNaNaNaNaNaNaNaNaNaNaNaNaNaNaNaNaNaNaNaaa(lp148
(lp149
NaNaNaNaNaNaNaNaNaNaNaNaNaNaNaNaNaNaNaNaa(lp150
NaNaNaNaNaNaNaNaNaNaNaNaNaNaNaNaNaNaNaNaa(lp151
NaNaNaNaNaNaNaNaNaNaNaNaNaNaNaNaNaNaNaNaa(lp152
NaNaNaNaNaNaNaNaNaNaNaNaNaNaNaNaNaNaNaNaa(lp153
NaNaNaNaNaNaNaNaNaNaNaNaNaNaNaNaNaNaNaNaa(lp154
NaNaNaNaNaNaNaNaNaNaNaNaNaNaNaNaNaNaNaNaa(lp155
NaNaNaNaNaNaNaNaNaNaNaNaNaNaNaNaNaNaNaNaa(lp156
NaNaNaNaNaNaNaNaNaNaNaNaNaNaNaNaNaNaNaNaa(lp157
NaNaNaNaNaNaNaNaNaNaNaNaNaNaNaNaNaNaNaNaa(lp158
NaNaNaNaNaNaNaNaNaNaNaNaNaNaNaNaNaNaNaNaa(lp159
NaNaNaNaNaNaNaNaNaNaNaNaNaNaNaNaNaNaNaNaa(lp160
NaNaNaNaNaNaNaNaNaNaNaNaNaNaNaNaNaNaNaNaa(lp161
NaNaNaNaNaNaNaNaNaNaNaNaNaNaNaNaNaNaNaNaa(lp162
NaNaNaNaNaNaNaNaNaNaNaNaNaNaNaNaNaNaNaNaa(lp163
NaNaNaNaNaNaNaNaNaNaNaNaNaNaNaNaNaNaNaNaa(lp164
NaNaNaNaNaNaNaNaNaNaNaNaNaNaNaNaNaNaNaNaa(lp165
NaNaNaNaNaNaNaNaNaNaNaNaNaNaNaNaNaNaNaNaa(lp166
NaNaNaNaNaNaNaNaNaNaNaNaNaNaNaNaNaNaNaNaa(lp167
NaNaNaNaNaNaNaNaNaNaNaNaNaNaNaNaNaNaNaNaa(lp168
NaNaNaNaNaNaNaNaNaNaNaNaNaNaNaNaNaNaNaNaaa(lp169
(lp170
NaNaNaNaNaNaNaNaNaNaNaNaNaNaNaNaNaNaNaNaa(lp171
NaNaNaNaNaNaNaNaNaNaNaNaNaNaNaNaNaNaNaNaa(lp172
NaNaNaNaNaNaNaNaNaNaNaNaNaNaNaNaNaNaNaNaa(lp173
NaNaNaNaNaNaNaNaNaNaNaNaNaNaNaNaNaNaNaNaa(lp174
NaNaNaNaNaNaNaNaNaNaNaNaNaNaNaNaNaNaNaNaa(lp175
NaNaNaNaNaNaNaNaNaNaNaNaNaNaNaNaNaNaNaNaa(lp176
NaNaNaNaNaNaNaNaNaNaNaNaNaNaNaNaNaNaNaNaa(lp177
NaNaNaNaNaNaNaNaNaNaNaNaNaNaNaNaNaNaNaNaa(lp178
NaNaNaNaNaNaNaNaNaNaNaNaNaNaNaNaNaNaNaNaa(lp179
NaNaNaNaNaNaNaNaNaNaNaNaNaNaNaNaNaNaNaNaa(lp180
NaNaNaNaNaNaNaNaNaNaNaNaNaNaNaNaNaNaNaNaa(lp181
NaNaNaNaNaNaNaNaNaNaNaNaNaNaNaNaNaNaNaNaa(lp182
NaNaNaNaNaNaNaNaNaNaNaNaNaNaNaNaNaNaNaNaa(lp183
NaNaNaNaNaNaNaNaNaNaNaNaNaNaNaNaNaNaNaNaa(lp184
NaNaNaNaNaNaNaNaNaNaNaNaNaNaNaNaNaNaNaNaa(lp185
NaNaNaNaNaNaNaNaNaNaNaNaNaNaNaNaNaNaNaNaa(lp186
NaNaNaNaNaNaNaNaNaNaNaNaNaNaNaNaNaNaNaNaa(lp187
NaNaNaNaNaNaNaNaNaNaNaNaNaNaNaNaNaNaNaNaa(lp188
NaNaNaNaNaNaNaNaNaNaNaNaNaNaNaNaNaNaNaNaa(lp189
NaNaNaNaNaNaNaNaNaNaNaNaNaNaNaNaNaNaNaNaaa(lp190
(lp191
Na(i__main__
Mesecon
p192
(dp193
S'connections'
p194
(lp195
(lp196
I0
aI0
aI1
aa(lp197
I1
aI0
aI0
aasS'state'
p198
I01
sS'group'
p199
ccopy_reg
_reconstructor
p200
(c__main__
Mesecons_group
p201
c__builtin__
object
p202
Ntp203
Rp204
(dp205
S'inputs'
p206
c__builtin__
set
p207
((lp208
((i__main__
ClassContainer._Inverter0
p209
(dp210
g206
(lp211
(lp212
I0
aI0
aI1
aasS'istates'
p213
(lp214
I00
asS'outputs'
p215
(lp216
(lp217
I0
aI0
aI-1
aasS'groups_o'
p218
(lp219
g204
asS'groups_i'
p220
(lp221
g200
(g201
g202
Ntp222
Rp223
(dp224
g206
g207
((lp225
tp226
Rp227
sS'connected'
p228
g207
((lp229
(i__main__
Mesecon
p230
(dp231
g194
(lp232
(lp233
I0
aI0
aI-1
aa(lp234
I0
aI0
aI1
aasg198
I00
sg199
g223
sS'connect'
p235
(lp236
g196
ag233
a(lp237
I1
aI0
aI0
aa(lp238
I-1
aI0
aI0
aa(lp239
I0
aI-1
aI1
aa(lp240
I0
aI-1
aI-1
aa(lp241
I1
aI-1
aI0
aa(lp242
I-1
aI-1
aI0
aa(lp243
I0
aI1
aI1
aa(lp244
I0
aI1
aI-1
aa(lp245
I1
aI1
aI0
aa(lp246
I-1
aI1
aI0
aasS't'
p247
S'conductor'
p248
sba(i__main__
Mesecon
p249
(dp250
g194
(lp251
g233
asg198
I00
sg199
g223
sg235
g236
sg247
g248
sbatp252
Rp253
sS'psources'
p254
I0
sg215
g207
((lp255
(g209
I0
tp256
atp257
Rp258
sbasg194
(lp259
(lp260
g204
aasg247
S'thing'
p261
sS'ostates'
p262
(lp263
I01
asbI0
tp264
atp265
Rp266
sg228
g207
((lp267
(i__main__
Mesecon
p268
(dp269
g194
(lp270
g238
asg198
I01
sg199
g204
sg235
g236
sg247
g248
sba(i__main__
Mesecon
p271
(dp272
g194
(lp273
g196
a(lp274
I0
aI0
aI-1
aasg198
I01
sg199
g204
sg235
g236
sg247
g248
sbag192
atp275
Rp276
sg254
I1
sg215
g207
((lp277
tp278
Rp279
sbsg235
g236
sg247
g248
sbag271
ag209
ag230
ag249
aNaNaNaNaNaNaNaNaNaNaNaNaNaNaa(lp280
NaNaNaNaNaNaNaNaNaNaNaNaNaNaNaNaNaNaNaNaa(lp281
NaNaNaNaNaNaNaNaNaNaNaNaNaNaNaNaNaNaNaNaa(lp282
NaNaNaNaNaNaNaNaNaNaNaNaNaNaNaNaNaNaNaNaa(lp283
NaNaNaNaNaNaNaNaNaNaNaNaNaNaNaNaNaNaNaNaa(lp284
NaNaNaNaNaNaNaNaNaNaNaNaNaNaNaNaNaNaNaNaa(lp285
NaNaNaNaNaNaNaNaNaNaNaNaNaNaNaNaNaNaNaNaa(lp286
NaNaNaNaNaNaNaNaNaNaNaNaNaNaNaNaNaNaNaNaa(lp287
NaNaNaNaNaNaNaNaNaNaNaNaNaNaNaNaNaNaNaNaa(lp288
NaNaNaNaNaNaNaNaNaNaNaNaNaNaNaNaNaNaNaNaa(lp289
NaNaNaNaNaNaNaNaNaNaNaNaNaNaNaNaNaNaNaNaa(lp290
NaNaNaNaNaNaNaNaNaNaNaNaNaNaNaNaNaNaNaNaa(lp291
NaNaNaNaNaNaNaNaNaNaNaNaNaNaNaNaNaNaNaNaa(lp292
NaNaNaNaNaNaNaNaNaNaNaNaNaNaNaNaNaNaNaNaa(lp293
NaNaNaNaNaNaNaNaNaNaNaNaNaNaNaNaNaNaNaNaa(lp294
NaNaNaNaNaNaNaNaNaNaNaNaNaNaNaNaNaNaNaNaa(lp295
NaNaNaNaNaNaNaNaNaNaNaNaNaNaNaNaNaNaNaNaa(lp296
NaNaNaNaNaNaNaNaNaNaNaNaNaNaNaNaNaNaNaNaa(lp297
NaNaNaNaNaNaNaNaNaNaNaNaNaNaNaNaNaNaNaNaa(lp298
NaNaNaNaNaNaNaNaNaNaNaNaNaNaNaNaNaNaNaNaaa(lp299
(lp300
Nag268
aNaNaNaNaNaNaNaNaNaNaNaNaNaNaNaNaNaNaa(lp301
NaNaNaNaNaNaNaNaNaNaNaNaNaNaNaNaNaNaNaNaa(lp302
NaNaNaNaNaNaNaNaNaNaNaNaNaNaNaNaNaNaNaNaa(lp303
NaNaNaNaNaNaNaNaNaNaNaNaNaNaNaNaNaNaNaNaa(lp304
NaNaNaNaNaNaNaNaNaNaNaNaNaNaNaNaNaNaNaNaa(lp305
NaNaNaNaNaNaNaNaNaNaNaNaNaNaNaNaNaNaNaNaa(lp306
NaNaNaNaNaNaNaNaNaNaNaNaNaNaNaNaNaNaNaNaa(lp307
NaNaNaNaNaNaNaNaNaNaNaNaNaNaNaNaNaNaNaNaa(lp308
NaNaNaNaNaNaNaNaNaNaNaNaNaNaNaNaNaNaNaNaa(lp309
NaNaNaNaNaNaNaNaNaNaNaNaNaNaNaNaNaNaNaNaa(lp310
NaNaNaNaNaNaNaNaNaNaNaNaNaNaNaNaNaNaNaNaa(lp311
NaNaNaNaNaNaNaNaNaNaNaNaNaNaNaNaNaNaNaNaa(lp312
NaNaNaNaNaNaNaNaNaNaNaNaNaNaNaNaNaNaNaNaa(lp313
NaNaNaNaNaNaNaNaNaNaNaNaNaNaNaNaNaNaNaNaa(lp314
NaNaNaNaNaNaNaNaNaNaNaNaNaNaNaNaNaNaNaNaa(lp315
NaNaNaNaNaNaNaNaNaNaNaNaNaNaNaNaNaNaNaNaa(lp316
NaNaNaNaNaNaNaNaNaNaNaNaNaNaNaNaNaNaNaNaa(lp317
NaNaNaNaNaNaNaNaNaNaNaNaNaNaNaNaNaNaNaNaa(lp318
NaNaNaNaNaNaNaNaNaNaNaNaNaNaNaNaNaNaNaNaa(lp319
NaNaNaNaNaNaNaNaNaNaNaNaNaNaNaNaNaNaNaNaaa(lp320
(lp321
NaNaNaNaNaNaNaNaNaNaNaNaNaNaNaNaNaNaNaNaa(lp322
NaNaNaNaNaNaNaNaNaNaNaNaNaNaNaNaNaNaNaNaa(lp323
NaNaNaNaNaNaNaNaNaNaNaNaNaNaNaNaNaNaNaNaa(lp324
NaNaNaNaNaNaNaNaNaNaNaNaNaNaNaNaNaNaNaNaa(lp325
NaNaNaNaNaNaNaNaNaNaNaNaNaNaNaNaNaNaNaNaa(lp326
NaNaNaNaNaNaNaNaNaNaNaNaNaNaNaNaNaNaNaNaa(lp327
NaNaNaNaNaNaNaNaNaNaNaNaNaNaNaNaNaNaNaNaa(lp328
NaNaNaNaNaNaNaNaNaNaNaNaNaNaNaNaNaNaNaNaa(lp329
NaNaNaNaNaNaNaNaNaNaNaNaNaNaNaNaNaNaNaNaa(lp330
NaNaNaNaNaNaNaNaNaNaNaNaNaNaNaNaNaNaNaNaa(lp331
NaNaNaNaNaNaNaNaNaNaNaNaNaNaNaNaNaNaNaNaa(lp332
NaNaNaNaNaNaNaNaNaNaNaNaNaNaNaNaNaNaNaNaa(lp333
NaNaNaNaNaNaNaNaNaNaNaNaNaNaNaNaNaNaNaNaa(lp334
NaNaNaNaNaNaNaNaNaNaNaNaNaNaNaNaNaNaNaNaa(lp335
NaNaNaNaNaNaNaNaNaNaNaNaNaNaNaNaNaNaNaNaa(lp336
NaNaNaNaNaNaNaNaNaNaNaNaNaNaNaNaNaNaNaNaa(lp337
NaNaNaNaNaNaNaNaNaNaNaNaNaNaNaNaNaNaNaNaa(lp338
NaNaNaNaNaNaNaNaNaNaNaNaNaNaNaNaNaNaNaNaa(lp339
NaNaNaNaNaNaNaNaNaNaNaNaNaNaNaNaNaNaNaNaa(lp340
NaNaNaNaNaNaNaNaNaNaNaNaNaNaNaNaNaNaNaNaaa(lp341
(lp342
NaNaNaNaNaNaNaNaNaNaNaNaNaNaNaNaNaNaNaNaa(lp343
NaNaNaNaNaNaNaNaNaNaNaNaNaNaNaNaNaNaNaNaa(lp344
NaNaNaNaNaNaNaNaNaNaNaNaNaNaNaNaNaNaNaNaa(lp345
NaNaNaNaNaNaNaNaNaNaNaNaNaNaNaNaNaNaNaNaa(lp346
NaNaNaNaNaNaNaNaNaNaNaNaNaNaNaNaNaNaNaNaa(lp347
NaNaNaNaNaNaNaNaNaNaNaNaNaNaNaNaNaNaNaNaa(lp348
NaNaNaNaNaNaNaNaNaNaNaNaNaNaNaNaNaNaNaNaa(lp349
NaNaNaNaNaNaNaNaNaNaNaNaNaNaNaNaNaNaNaNaa(lp350
NaNaNaNaNaNaNaNaNaNaNaNaNaNaNaNaNaNaNaNaa(lp351
NaNaNaNaNaNaNaNaNaNaNaNaNaNaNaNaNaNaNaNaa(lp352
NaNaNaNaNaNaNaNaNaNaNaNaNaNaNaNaNaNaNaNaa(lp353
NaNaNaNaNaNaNaNaNaNaNaNaNaNaNaNaNaNaNaNaa(lp354
NaNaNaNaNaNaNaNaNaNaNaNaNaNaNaNaNaNaNaNaa(lp355
NaNaNaNaNaNaNaNaNaNaNaNaNaNaNaNaNaNaNaNaa(lp356
NaNaNaNaNaNaNaNaNaNaNaNaNaNaNaNaNaNaNaNaa(lp357
NaNaNaNaNaNaNaNaNaNaNaNaNaNaNaNaNaNaNaNaa(lp358
NaNaNaNaNaNaNaNaNaNaNaNaNaNaNaNaNaNaNaNaa(lp359
NaNaNaNaNaNaNaNaNaNaNaNaNaNaNaNaNaNaNaNaa(lp360
NaNaNaNaNaNaNaNaNaNaNaNaNaNaNaNaNaNaNaNaa(lp361
NaNaNaNaNaNaNaNaNaNaNaNaNaNaNaNaNaNaNaNaaa(lp362
(lp363
NaNaNaNaNaNaNaNaNaNaNaNaNaNaNaNaNaNaNaNaa(lp364
NaNaNaNaNaNaNaNaNaNaNaNaNaNaNaNaNaNaNaNaa(lp365
NaNaNaNaNaNaNaNaNaNaNaNaNaNaNaNaNaNaNaNaa(lp366
NaNaNaNaNaNaNaNaNaNaNaNaNaNaNaNaNaNaNaNaa(lp367
NaNaNaNaNaNaNaNaNaNaNaNaNaNaNaNaNaNaNaNaa(lp368
NaNaNaNaNaNaNaNaNaNaNaNaNaNaNaNaNaNaNaNaa(lp369
NaNaNaNaNaNaNaNaNaNaNaNaNaNaNaNaNaNaNaNaa(lp370
NaNaNaNaNaNaNaNaNaNaNaNaNaNaNaNaNaNaNaNaa(lp371
NaNaNaNaNaNaNaNaNaNaNaNaNaNaNaNaNaNaNaNaa(lp372
NaNaNaNaNaNaNaNaNaNaNaNaNaNaNaNaNaNaNaNaa(lp373
NaNaNaNaNaNaNaNaNaNaNaNaNaNaNaNaNaNaNaNaa(lp374
NaNaNaNaNaNaNaNaNaNaNaNaNaNaNaNaNaNaNaNaa(lp375
NaNaNaNaNaNaNaNaNaNaNaNaNaNaNaNaNaNaNaNaa(lp376
NaNaNaNaNaNaNaNaNaNaNaNaNaNaNaNaNaNaNaNaa(lp377
NaNaNaNaNaNaNaNaNaNaNaNaNaNaNaNaNaNaNaNaa(lp378
NaNaNaNaNaNaNaNaNaNaNaNaNaNaNaNaNaNaNaNaa(lp379
NaNaNaNaNaNaNaNaNaNaNaNaNaNaNaNaNaNaNaNaa(lp380
NaNaNaNaNaNaNaNaNaNaNaNaNaNaNaNaNaNaNaNaa(lp381
NaNaNaNaNaNaNaNaNaNaNaNaNaNaNaNaNaNaNaNaa(lp382
NaNaNaNaNaNaNaNaNaNaNaNaNaNaNaNaNaNaNaNaaa(lp383
(lp384
NaNaNaNaNaNaNaNaNaNaNaNaNaNaNaNaNaNaNaNaa(lp385
NaNaNaNaNaNaNaNaNaNaNaNaNaNaNaNaNaNaNaNaa(lp386
NaNaNaNaNaNaNaNaNaNaNaNaNaNaNaNaNaNaNaNaa(lp387
NaNaNaNaNaNaNaNaNaNaNaNaNaNaNaNaNaNaNaNaa(lp388
NaNaNaNaNaNaNaNaNaNaNaNaNaNaNaNaNaNaNaNaa(lp389
NaNaNaNaNaNaNaNaNaNaNaNaNaNaNaNaNaNaNaNaa(lp390
NaNaNaNaNaNaNaNaNaNaNaNaNaNaNaNaNaNaNaNaa(lp391
NaNaNaNaNaNaNaNaNaNaNaNaNaNaNaNaNaNaNaNaa(lp392
NaNaNaNaNaNaNaNaNaNaNaNaNaNaNaNaNaNaNaNaa(lp393
NaNaNaNaNaNaNaNaNaNaNaNaNaNaNaNaNaNaNaNaa(lp394
NaNaNaNaNaNaNaNaNaNaNaNaNaNaNaNaNaNaNaNaa(lp395
NaNaNaNaNaNaNaNaNaNaNaNaNaNaNaNaNaNaNaNaa(lp396
NaNaNaNaNaNaNaNaNaNaNaNaNaNaNaNaNaNaNaNaa(lp397
NaNaNaNaNaNaNaNaNaNaNaNaNaNaNaNaNaNaNaNaa(lp398
NaNaNaNaNaNaNaNaNaNaNaNaNaNaNaNaNaNaNaNaa(lp399
NaNaNaNaNaNaNaNaNaNaNaNaNaNaNaNaNaNaNaNaa(lp400
NaNaNaNaNaNaNaNaNaNaNaNaNaNaNaNaNaNaNaNaa(lp401
NaNaNaNaNaNaNaNaNaNaNaNaNaNaNaNaNaNaNaNaa(lp402
NaNaNaNaNaNaNaNaNaNaNaNaNaNaNaNaNaNaNaNaa(lp403
NaNaNaNaNaNaNaNaNaNaNaNaNaNaNaNaNaNaNaNaaa(lp404
(lp405
NaNaNaNaNaNaNaNaNaNaNaNaNaNaNaNaNaNaNaNaa(lp406
NaNaNaNaNaNaNaNaNaNaNaNaNaNaNaNaNaNaNaNaa(lp407
NaNaNaNaNaNaNaNaNaNaNaNaNaNaNaNaNaNaNaNaa(lp408
NaNaNaNaNaNaNaNaNaNaNaNaNaNaNaNaNaNaNaNaa(lp409
NaNaNaNaNaNaNaNaNaNaNaNaNaNaNaNaNaNaNaNaa(lp410
NaNaNaNaNaNaNaNaNaNaNaNaNaNaNaNaNaNaNaNaa(lp411
NaNaNaNaNaNaNaNaNaNaNaNaNaNaNaNaNaNaNaNaa(lp412
NaNaNaNaNaNaNaNaNaNaNaNaNaNaNaNaNaNaNaNaa(lp413
NaNaNaNaNaNaNaNaNaNaNaNaNaNaNaNaNaNaNaNaa(lp414
NaNaNaNaNaNaNaNaNaNaNaNaNaNaNaNaNaNaNaNaa(lp415
NaNaNaNaNaNaNaNaNaNaNaNaNaNaNaNaNaNaNaNaa(lp416
NaNaNaNaNaNaNaNaNaNaNaNaNaNaNaNaNaNaNaNaa(lp417
NaNaNaNaNaNaNaNaNaNaNaNaNaNaNaNaNaNaNaNaa(lp418
NaNaNaNaNaNaNaNaNaNaNaNaNaNaNaNaNaNaNaNaa(lp419
NaNaNaNaNaNaNaNaNaNaNaNaNaNaNaNaNaNaNaNaa(lp420
NaNaNaNaNaNaNaNaNaNaNaNaNaNaNaNaNaNaNaNaa(lp421
NaNaNaNaNaNaNaNaNaNaNaNaNaNaNaNaNaNaNaNaa(lp422
NaNaNaNaNaNaNaNaNaNaNaNaNaNaNaNaNaNaNaNaa(lp423
NaNaNaNaNaNaNaNaNaNaNaNaNaNaNaNaNaNaNaNaa(lp424
NaNaNaNaNaNaNaNaNaNaNaNaNaNaNaNaNaNaNaNaaa(lp425
(lp426
NaNaNaNaNaNaNaNaNaNaNaNaNaNaNaNaNaNaNaNaa(lp427
NaNaNaNaNaNaNaNaNaNaNaNaNaNaNaNaNaNaNaNaa(lp428
NaNaNaNaNaNaNaNaNaNaNaNaNaNaNaNaNaNaNaNaa(lp429
NaNaNaNaNaNaNaNaNaNaNaNaNaNaNaNaNaNaNaNaa(lp430
NaNaNaNaNaNaNaNaNaNaNaNaNaNaNaNaNaNaNaNaa(lp431
NaNaNaNaNaNaNaNaNaNaNaNaNaNaNaNaNaNaNaNaa(lp432
NaNaNaNaNaNaNaNaNaNaNaNaNaNaNaNaNaNaNaNaa(lp433
NaNaNaNaNaNaNaNaNaNaNaNaNaNaNaNaNaNaNaNaa(lp434
NaNaNaNaNaNaNaNaNaNaNaNaNaNaNaNaNaNaNaNaa(lp435
NaNaNaNaNaNaNaNaNaNaNaNaNaNaNaNaNaNaNaNaa(lp436
NaNaNaNaNaNaNaNaNaNaNaNaNaNaNaNaNaNaNaNaa(lp437
NaNaNaNaNaNaNaNaNaNaNaNaNaNaNaNaNaNaNaNaa(lp438
NaNaNaNaNaNaNaNaNaNaNaNaNaNaNaNaNaNaNaNaa(lp439
NaNaNaNaNaNaNaNaNaNaNaNaNaNaNaNaNaNaNaNaa(lp440
NaNaNaNaNaNaNaNaNaNaNaNaNaNaNaNaNaNaNaNaa(lp441
NaNaNaNaNaNaNaNaNaNaNaNaNaNaNaNaNaNaNaNaa(lp442
NaNaNaNaNaNaNaNaNaNaNaNaNaNaNaNaNaNaNaNaa(lp443
NaNaNaNaNaNaNaNaNaNaNaNaNaNaNaNaNaNaNaNaa(lp444
NaNaNaNaNaNaNaNaNaNaNaNaNaNaNaNaNaNaNaNaa(lp445
NaNaNaNaNaNaNaNaNaNaNaNaNaNaNaNaNaNaNaNaaa(lp446
(lp447
NaNaNaNaNaNaNaNaNaNaNaNaNaNaNaNaNaNaNaNaa(lp448
NaNaNaNaNaNaNaNaNaNaNaNaNaNaNaNaNaNaNaNaa(lp449
NaNaNaNaNaNaNaNaNaNaNaNaNaNaNaNaNaNaNaNaa(lp450
NaNaNaNaNaNaNaNaNaNaNaNaNaNaNaNaNaNaNaNaa(lp451
NaNaNaNaNaNaNaNaNaNaNaNaNaNaNaNaNaNaNaNaa(lp452
NaNaNaNaNaNaNaNaNaNaNaNaNaNaNaNaNaNaNaNaa(lp453
NaNaNaNaNaNaNaNaNaNaNaNaNaNaNaNaNaNaNaNaa(lp454
NaNaNaNaNaNaNaNaNaNaNaNaNaNaNaNaNaNaNaNaa(lp455
NaNaNaNaNaNaNaNaNaNaNaNaNaNaNaNaNaNaNaNaa(lp456
NaNaNaNaNaNaNaNaNaNaNaNaNaNaNaNaNaNaNaNaa(lp457
NaNaNaNaNaNaNaNaNaNaNaNaNaNaNaNaNaNaNaNaa(lp458
NaNaNaNaNaNaNaNaNaNaNaNaNaNaNaNaNaNaNaNaa(lp459
NaNaNaNaNaNaNaNaNaNaNaNaNaNaNaNaNaNaNaNaa(lp460
NaNaNaNaNaNaNaNaNaNaNaNaNaNaNaNaNaNaNaNaa(lp461
NaNaNaNaNaNaNaNaNaNaNaNaNaNaNaNaNaNaNaNaa(lp462
NaNaNaNaNaNaNaNaNaNaNaNaNaNaNaNaNaNaNaNaa(lp463
NaNaNaNaNaNaNaNaNaNaNaNaNaNaNaNaNaNaNaNaa(lp464
NaNaNaNaNaNaNaNaNaNaNaNaNaNaNaNaNaNaNaNaa(lp465
NaNaNaNaNaNaNaNaNaNaNaNaNaNaNaNaNaNaNaNaa(lp466
NaNaNaNaNaNaNaNaNaNaNaNaNaNaNaNaNaNaNaNaaa(lp467
(lp468
NaNaNaNaNaNaNaNaNaNaNaNaNaNaNaNaNaNaNaNaa(lp469
NaNaNaNaNaNaNaNaNaNaNaNaNaNaNaNaNaNaNaNaa(lp470
NaNaNaNaNaNaNaNaNaNaNaNaNaNaNaNaNaNaNaNaa(lp471
NaNaNaNaNaNaNaNaNaNaNaNaNaNaNaNaNaNaNaNaa(lp472
NaNaNaNaNaNaNaNaNaNaNaNaNaNaNaNaNaNaNaNaa(lp473
NaNaNaNaNaNaNaNaNaNaNaNaNaNaNaNaNaNaNaNaa(lp474
NaNaNaNaNaNaNaNaNaNaNaNaNaNaNaNaNaNaNaNaa(lp475
NaNaNaNaNaNaNaNaNaNaNaNaNaNaNaNaNaNaNaNaa(lp476
NaNaNaNaNaNaNaNaNaNaNaNaNaNaNaNaNaNaNaNaa(lp477
NaNaNaNaNaNaNaNaNaNaNaNaNaNaNaNaNaNaNaNaa(lp478
NaNaNaNaNaNaNaNaNaNaNaNaNaNaNaNaNaNaNaNaa(lp479
NaNaNaNaNaNaNaNaNaNaNaNaNaNaNaNaNaNaNaNaa(lp480
NaNaNaNaNaNaNaNaNaNaNaNaNaNaNaNaNaNaNaNaa(lp481
NaNaNaNaNaNaNaNaNaNaNaNaNaNaNaNaNaNaNaNaa(lp482
NaNaNaNaNaNaNaNaNaNaNaNaNaNaNaNaNaNaNaNaa(lp483
NaNaNaNaNaNaNaNaNaNaNaNaNaNaNaNaNaNaNaNaa(lp484
NaNaNaNaNaNaNaNaNaNaNaNaNaNaNaNaNaNaNaNaa(lp485
NaNaNaNaNaNaNaNaNaNaNaNaNaNaNaNaNaNaNaNaa(lp486
NaNaNaNaNaNaNaNaNaNaNaNaNaNaNaNaNaNaNaNaa(lp487
NaNaNaNaNaNaNaNaNaNaNaNaNaNaNaNaNaNaNaNaaa(lp488
(lp489
NaNaNaNaNaNaNaNaNaNaNaNaNaNaNaNaNaNaNaNaa(lp490
NaNaNaNaNaNaNaNaNaNaNaNaNaNaNaNaNaNaNaNaa(lp491
NaNaNaNaNaNaNaNaNaNaNaNaNaNaNaNaNaNaNaNaa(lp492
NaNaNaNaNaNaNaNaNaNaNaNaNaNaNaNaNaNaNaNaa(lp493
NaNaNaNaNaNaNaNaNaNaNaNaNaNaNaNaNaNaNaNaa(lp494
NaNaNaNaNaNaNaNaNaNaNaNaNaNaNaNaNaNaNaNaa(lp495
NaNaNaNaNaNaNaNaNaNaNaNaNaNaNaNaNaNaNaNaa(lp496
NaNaNaNaNaNaNaNaNaNaNaNaNaNaNaNaNaNaNaNaa(lp497
NaNaNaNaNaNaNaNaNaNaNaNaNaNaNaNaNaNaNaNaa(lp498
NaNaNaNaNaNaNaNaNaNaNaNaNaNaNaNaNaNaNaNaa(lp499
NaNaNaNaNaNaNaNaNaNaNaNaNaNaNaNaNaNaNaNaa(lp500
NaNaNaNaNaNaNaNaNaNaNaNaNaNaNaNaNaNaNaNaa(lp501
NaNaNaNaNaNaNaNaNaNaNaNaNaNaNaNaNaNaNaNaa(lp502
NaNaNaNaNaNaNaNaNaNaNaNaNaNaNaNaNaNaNaNaa(lp503
NaNaNaNaNaNaNaNaNaNaNaNaNaNaNaNaNaNaNaNaa(lp504
NaNaNaNaNaNaNaNaNaNaNaNaNaNaNaNaNaNaNaNaa(lp505
NaNaNaNaNaNaNaNaNaNaNaNaNaNaNaNaNaNaNaNaa(lp506
NaNaNaNaNaNaNaNaNaNaNaNaNaNaNaNaNaNaNaNaa(lp507
NaNaNaNaNaNaNaNaNaNaNaNaNaNaNaNaNaNaNaNaa(lp508
NaNaNaNaNaNaNaNaNaNaNaNaNaNaNaNaNaNaNaNaaa.